(lp0
VPussycat
p1
aVAlexandra Burke
p2
aVLil Zane
p3
aVFrankee
p4
aVHerb Alpert
p5
aVBobby Vinton
p6
aVThe Weakerthans
p7
aVAlishas Attic
p8
aVEliza Doolittle
p9
aVBobby Darin
p10
aVCaifanes
p11
aVMiranda
p12
aVB2K
p13
aVMetronomy
p14
aVDeerhunter
p15
aVLedisi
p16
aVMad Season
p17
aVBig Moe
p18
aVProng
p19
aVThe Duke Spirit
p20
aVAzam Ali
p21
aVG4
p22
aVMechanical Poet
p23
aVLuxuria
p24
aVBill Nelson
p25
aVHeatwave
p26
aVThe Butterfly Effect
p27
aVJesse Malin
p28
aVTree63
p29
aVNirvana
p30
aVRandy Travis
p31
aVMassive Attack
p32
aVAgent Steel
p33
aVBikini Kill
p34
aVMary Black
p35
aVTeitur
p36
aVBWO
p37
aVBlue Rodeo
p38
aVProcol Harum
p39
aVEnslaved
p40
aVDaughtry
p41
aVPlastilina Mosh
p42
aVThe Purrs
p43
aVHawkwind
p44
aVBowling For Soup
p45
aVWestside Connection
p46
aVThe Hidden Cameras
p47
aVFunker Vogt
p48
aVJim Ed Brown
p49
aVPaul Brady
p50
aVChris Tomlin
p51
aVRev Run
p52
aVIan Dury
p53
aVBrett Dennen
p54
aVNoelia
p55
aVSublime
p56
aVDudley Perkins
p57
aVThe Muppets
p58
aVFireball Ministry
p59
aVDonna Fargo
p60
aVUrban Dance Squad
p61
aVGary Allan
p62
aVAlberta Cross
p63
aVJag Panzer
p64
aVThe Farm
p65
aVBilly Bragg
p66
aVJohn Waite
p67
aVAdmiral Freebee
p68
aVGeorge Clinton
p69
aVThe Crystal Method
p70
aVLeon Haywood
p71
aVPink Cream 69
p72
aVTanya Stephens
p73
aVTwisted Sister
p74
aVMercyME
p75
aVBayside
p76
aVGroove Theory
p77
aVHowling Bells
p78
aVRoy Brown
p79
aVDonell Jones
p80
aVJump Little Children
p81
aVJohn Mellencamp
p82
aVRed Hot Chili Peppers
p83
aVSuzanne Vega
p84
aVHanoi Rocks
p85
aVMichael McDonald
p86
aVJudee Sill
p87
aVDramarama
p88
aVThe Bottle Rockets
p89
aVBic Runga
p90
aVBrigitte Bardot
p91
aVBetween The Trees
p92
aVPraga Khan
p93
aVTaproot
p94
aVShwayze
p95
aVMurder By Death
p96
aVRobert Cray
p97
aVCulture
p98
aVKeoki
p99
aVThe Damned
p100
aVCornelis Vreeswijk
p101
aV36 Crazyfists
p102
aVAnggun
p103
aVBeloved
p104
aVBeverley Craven
p105
aVThe Unseen
p106
aVNusrat Fateh Ali Khan
p107
aVFinger Eleven
p108
aVSneaky Sound System
p109
aVBrendan Perry
p110
aVAirbourne
p111
aVJoshua Kadison
p112
aVFive Bolt Main
p113
aVPur
p114
aVRolf Harris
p115
aVAshbury Heights
p116
aVLITTLE TEXAS
p117
aVDavid Bisbal
p118
aVCartel De Santa
p119
aVMary Mary
p120
aVEast West
p121
aVBon Iver
p122
aVMary Wells
p123
aVWilson Pickett
p124
aVJimmy Somerville
p125
aVThe Notwist
p126
aVRachel Stevens
p127
aVBadly Drawn Boy
p128
aVFaces
p129
aVSepultura
p130
aVDemolition Hammer
p131
aVTower Of Power
p132
aVSlightly Stoopid
p133
aVLupe Fiasco
p134
aVBoris Vian
p135
aVAshley Tisdale
p136
aVBad Brains
p137
aVJungle Brothers
p138
aVMichel Polnareff
p139
aVGloria Loring
p140
aVSkyhooks
p141
aVQueen
p142
aVJunior Senior
p143
aVMark Farina
p144
aVAll Saints
p145
aVGoodie MoB
p146
aVUltraje A Rigor
p147
aVRoch Voisine
p148
aVSurfer Blood
p149
aVWheatus
p150
aVAterciopelados
p151
aVYelle
p152
aVMurs
p153
aVThe Twilight Singers
p154
aVCold
p155
aVOne Way System
p156
aVFigure Four
p157
aVClimie Fisher
p158
aVPebbles
p159
aVWire
p160
aVJERRY WALLACE
p161
aVDesree
p162
aVRaphael Saadiq
p163
aVMidnight Juggernauts
p164
aVTiger Lou
p165
aVDownset
p166
aVBeneath The Sky
p167
aVGerry Rafferty
p168
aVSuzy Bogguss
p169
aVMarmaduke Duke
p170
aVAvenged Sevenfold
p171
aVSay Anything
p172
aVBetchadupa
p173
aVKiuas
p174
aVSick Of It All
p175
aVThe Notorious Cherry Bombs
p176
aVCocteau Twins
p177
aVThe Spill Canvas
p178
aVFruit Bats
p179
aV28 Days
p180
aVThe Casualties
p181
aVFrom Autumn To Ashes
p182
aVEmma Shapplin
p183
aVQntal
p184
aVPaul Potts
p185
aVRicky Martin
p186
aVDenison Witmer
p187
aVBobby McFerrin
p188
aVVicky Leandros
p189
aVTwo Witches
p190
aVMullmuzzler
p191
aVBlind Guardian
p192
aVThe Primitives
p193
aVEmerson Drive
p194
aVZwan
p195
aVKyuss
p196
aVRainbirds
p197
aVJuan Gabriel
p198
aVDavid Soul
p199
aVDarren Hanlon
p200
aVHolly Cole
p201
aVConnie Francis
p202
aVJohnathan Rice
p203
aVMinistry
p204
aVCraig Morgan
p205
aVBeastie Boys
p206
aVAl Jarreau
p207
aVJohnny Adams
p208
aVLos Prisioneros
p209
aVMoZella
p210
aVMalvina Reynolds
p211
aVThe Beta Band
p212
aVLumidee
p213
aVArid
p214
aVLuis Fonsi
p215
aVKudai
p216
aVJerry Jeff Walker
p217
aVZoegirl
p218
aVKevin Drew
p219
aVDanzig
p220
aVArrogant Worms
p221
aVMarkus Schulz
p222
aVBosson
p223
aVGatsbys American Dream
p224
aV1997
p225
aVChristina Milian
p226
aVNecrophagist
p227
aVThe Tams
p228
aVAmistades Peligrosas
p229
aV16 Horsepower
p230
aVWarmen
p231
aVLuna
p232
aVGang Of Four
p233
aVMost Precious Blood
p234
aVMandy Moore
p235
aVBrigitte Fontaine
p236
aVBeasts Of Bourbon
p237
aVRay Price
p238
aVTiamat
p239
aVThe Blues Brothers
p240
aVThe Searchers
p241
aVTom Verlaine
p242
aVSyl Johnson
p243
aVFive for Fighting
p244
aVMOTH
p245
aVAlbert Hammond
p246
aVUNKLE
p247
aVThe Crests
p248
aVMitchel Musso
p249
aVLit
p250
aVKaryn White
p251
aVCALLA
p252
aVKill Hannah
p253
aVTheory Of A Deadman
p254
aVCANDLEMASS
p255
aVMotograter
p256
aVCannibal Corpse
p257
aVLuke Bryan
p258
aVBob James
p259
aVSami Yusuf
p260
aVIl Divo
p261
aVAmy Winehouse
p262
aVBlack Widow
p263
aVGoldfrapp
p264
aVPhoenix
p265
aVMontrose
p266
aVSilvertide
p267
aVXzibit
p268
aVBig D and The Kids Table
p269
aVFastway
p270
aVCarina Round
p271
aVThe Boomtown Rats
p272
aVKudu
p273
aVDaniel Bedingfield
p274
aVLevon Helm
p275
aVMint Royale
p276
aVLovex
p277
aVVAST
p278
aVWayne Hancock
p279
aVCock Sparrer
p280
aVDogs Die In Hot Cars
p281
aVBaron Zen
p282
aVNelly Furtado
p283
aVRas Kass
p284
aVJohnny Mathis
p285
aVsilent force
p286
aVThe Real McKenzies
p287
aVL7
p288
aVJoan Armatrading
p289
aVGym Class Heroes
p290
aVSavoy
p291
aVLess Than Jake
p292
aVCarole King
p293
aVSydney Youngblood
p294
aVLittle Brother
p295
aVPitch Black
p296
aVRise Against
p297
aVJohn Ralston
p298
aVJoy Zipper
p299
aVCarrie Underwood
p300
aVKamelot
p301
aVDusty Springfield
p302
aVJimmy Needham
p303
aVGrace Jones
p304
aVWishbone Ash
p305
aVSam Phillips
p306
aVMaxwell
p307
aVSeguridad Social
p308
aVThe Antlers
p309
aVThe Brothers Johnson
p310
aVAstrud Gilberto
p311
aVBorknagar
p312
aVThe Used
p313
aVAnjali
p314
aVGeorge Ducas
p315
aVJackie DeShannon
p316
aVNeil Finn
p317
aVCartola
p318
aVRicardo Montaner
p319
aVRotersand
p320
aVLimahl
p321
aVIdle Sons
p322
aVHelmet
p323
aVDavid Phelps
p324
aVDionne Warwick
p325
aVBobby Rydell
p326
aVMayer Hawthorne
p327
aVSleeping At Last
p328
aVVixen
p329
aVJackson Sisters
p330
aVKatherine Jenkins
p331
aVHallows Eve
p332
aVVHS Or Beta
p333
aVAmber Pacific
p334
aVAloe Blacc
p335
aVBlur
p336
aVStacey Kent
p337
aVElvis Perkins
p338
aVOceanLab
p339
aVNic Jones
p340
aVSyd Barrett
p341
aVFelix Da Housecat
p342
aVSuicidal Tendencies
p343
aVINXS
p344
aVSade
p345
aVTed Nugent
p346
aVThe Irish Rovers
p347
aVJudy Collins
p348
aVVaughan Penn
p349
aVMelanie Doane
p350
aVLa Oreja de Van Gogh
p351
aVNatas
p352
aVCaro Emerald
p353
aVDiana Navarro
p354
aVMDO
p355
aVBeck
p356
aVMaggie Reilly
p357
aVOne Dove
p358
aVThe Blue Jays
p359
aVDoro
p360
aVArthur Brown
p361
aVSpiritual Beggars
p362
aVRaintime
p363
aVThe Summer Obsession
p364
aVVetiver
p365
aVWordsworth
p366
aVFrankie Avalon
p367
aVSurvivor
p368
aVMeredith Brooks
p369
aVMatt Pond PA
p370
aVLittle Boots
p371
aVTiro De Gracia
p372
aVChris Brown
p373
aVLisa Stansfield
p374
aVThe Hush Sound
p375
aVThe Duhks
p376
aVDozer
p377
aVDie Trying
p378
aVTina Turner
p379
aVAugust Burns Red
p380
aVGuttermouth
p381
aVCurtis Mayfield
p382
aVThe Righteous Brothers
p383
aVBonfire
p384
aVPublic Enemy
p385
aVAvril Lavigne
p386
aVInspiral Carpets
p387
aVPenance
p388
aVThe Stooges
p389
aVSam Roberts
p390
aVEric Church
p391
aVJimmy Rogers
p392
aVPUNGENT STENCH
p393
aVSting
p394
aVTim Obrien
p395
aVFrankie Goes To Hollywood
p396
aVBenjamin Biolay
p397
aVSibylle Baier
p398
aVSoulsavers
p399
aVGod Module
p400
aVBlaine Larsen
p401
aVGod Help The Girl
p402
aVNow Its Overhead
p403
aVGeorge Duke
p404
aVThe Boo Radleys
p405
aVMat Kearney
p406
aVHelix
p407
aVRainbow
p408
aVMickey 3D
p409
aVBrian Littrell
p410
aVSilicone Soul
p411
aVThe Beautiful Mistake
p412
aVNightwish
p413
aVSparks
p414
aVOmarion
p415
aVTopmodelz
p416
aVAnathema
p417
aVBlood Red Shoes
p418
aVThe Sleepy Jackson
p419
aVMedicine
p420
aVDizzy Mizz Lizzy
p421
aVJibbs
p422
aVPearl Jam
p423
aVJim Reeves
p424
aVRoger Whittaker
p425
aVFrank McComb
p426
aVName Taken
p427
aVThe Amps
p428
aVDiscovery
p429
aVModest Mouse
p430
aVNaked Eyes
p431
aVYoko Ono
p432
aVBetween The Buried And Me
p433
aVJuice
p434
aVShayne Ward
p435
aVThe Alternate Routes
p436
aVTrue Vibe
p437
aVMuse
p438
aVThe Cliks
p439
aVWilliam Bell
p440
aVThe Troggs
p441
aVTomte
p442
aVDischarge
p443
aVHole
p444
aVMC Lars
p445
aVOcean Colour Scene
p446
aVSuzi Quatro
p447
aVVan Der Graaf Generator
p448
aVLos Suaves
p449
aVMARC COHN
p450
aVDavid Ball
p451
aVOld Crow Medicine Show
p452
aVDo Me Bad Things
p453
aVChris Murray
p454
aVBeherit
p455
aVBobby Bare
p456
aVRebecca Lynn Howard
p457
aVGreg Laswell
p458
aVLil Mama
p459
aVGodflesh
p460
aVCelso Fonseca
p461
aVKings X
p462
aVRoger Cicero
p463
aVZounds
p464
aVTV On The Radio
p465
aVJuli
p466
aVAsobi Seksu
p467
aVJim Brickman
p468
aVLink 80
p469
aVAlbert One
p470
aVThe Shirelles
p471
aVWade Hayes
p472
aVRed Garland
p473
aVCharlie Winston
p474
aVHepcat
p475
aVShawn Colvin
p476
aVKinky
p477
aVSeptember
p478
aVMetric
p479
aVJoseph Arthur
p480
aVLou Gramm
p481
aVJosh Martinez
p482
aVSam Bush
p483
aVSo Many Dynamos
p484
aVBananarama
p485
aVGwen Stefani
p486
aVLaura Pausini
p487
aVTelevision Personalities
p488
aVFaust
p489
aVSemisonic
p490
aVElastica
p491
aVBlack Strobe
p492
aVObituary
p493
aVAlison Moyet
p494
aVBRENDA K STARR
p495
aVCog
p496
aVDog Eat Dog
p497
aVBeats International
p498
aVPoni Hoax
p499
aVFight
p500
aVTenth Avenue North
p501
aVThe Acacia Strain
p502
aV4Him
p503
aVDishwalla
p504
aVJim Lauderdale
p505
aVSarah McLachlan
p506
aVMatt Costa
p507
aVBusta Rhymes
p508
aVOysterband
p509
aVShanice
p510
aVNina Nastasia
p511
aVGorguts
p512
aVGotan Project
p513
aVDaniela Mercury
p514
aVBeseech
p515
aVLMFAO
p516
aVBuffalo Springfield
p517
aVDana Glover
p518
aVCandi Staton
p519
aVKatharine McPhee
p520
aVSwizz Beatz
p521
aVMest
p522
aVVolumen Cero
p523
aVFloetry
p524
aVCraig David
p525
aVShaman
p526
aVHanson
p527
aVARRESTED DEVELOPMENT
p528
aVSelena
p529
aVTori Amos
p530
aVTaste
p531
aVMoloko
p532
aVLeo Kottke
p533
aVRobin Trower
p534
aVDavid Bowie
p535
aVWhite Lion
p536
aVBlitzen Trapper
p537
aVThe Beloved
p538
aVCazuza
p539
aVNegative
p540
aVThe Pretty Things
p541
aVWolf Parade
p542
aVFiddlers Green
p543
aVChristine McVie
p544
aVConnie Smith
p545
aVZac Brown Band
p546
aVSONATA ARCTICA
p547
aViio
p548
aVRoger Creager
p549
aVCheNelle
p550
aVAll That Remains
p551
aVDonny Osmond
p552
aVThe Weepies
p553
aVGalaxie 500
p554
aVSoft Cell
p555
aVRegina Spektor
p556
aVThe Christians
p557
aVCarl Smith
p558
aVMaria Taylor
p559
aVGay Dad
p560
aVDecembeRadio
p561
aVFive Iron Frenzy
p562
aVBrian Eno
p563
aVH2O
p564
aVBlack Stone Cherry
p565
aVUsher
p566
aVBeady Belle
p567
aVThe Ordinary Boys
p568
aVMadonna
p569
aVGravenhurst
p570
aVThe Pharcyde
p571
aVBethany Dillon
p572
aVSamantha Mumba
p573
aVBee Gees
p574
aVParkway Drive
p575
aVAmanda Perez
p576
aVDonnie McClurkin
p577
aVSaves The Day
p578
aVLeft Hand Solution
p579
aVThe Mutton Birds
p580
aVChicago
p581
aVThe Thermals
p582
aVThe Cooper Temple Clause
p583
aVSophie Monk
p584
aVOtis Rush
p585
aVTihuana
p586
aVNone More Black
p587
aVLiz Phair
p588
aVAngela Bofill
p589
aVDr Feelgood
p590
aVPeter White
p591
aVThe Intruders
p592
aVHowie Day
p593
aVNichole Nordeman
p594
aVAnother Animal
p595
aVErase The Grey
p596
aVTony Yayo
p597
aVGreg Long
p598
aVFrancesco Guccini
p599
aVRichard Clayderman
p600
aVThousand Foot Krutch
p601
aVFinch
p602
aVFive Finger Death Punch
p603
aVThe Scaffold
p604
aVGinuwine
p605
aVCece Winans
p606
aVToby Love
p607
aVTwisted Method
p608
aVThe Be Good Tanyas
p609
aVKate Walsh
p610
aVMargaret Whiting
p611
aVThe Soundtrack of Our Lives
p612
aVBlue Six
p613
aVAsh
p614
aVFriendly Fires
p615
aVRuss Ballard
p616
aVNo Fun At All
p617
aVRoy Rogers
p618
aVLSG
p619
aVSaga
p620
aVBLEED THE SKY
p621
aVThe Audition
p622
aVHoneybrowne
p623
aVSystem of a Down
p624
aVBad English
p625
aVThe Ocean Blue
p626
aVOliver Onions
p627
aVEmpire Of The Sun
p628
aVTrader Horne
p629
aVThe Summer Set
p630
aVBeenie Man
p631
aVSido
p632
aVAlabama
p633
aVThin White Rope
p634
aVMercy Mercedes
p635
aVOrishas
p636
aVCurtis Stigers
p637
aVAttica Blues
p638
aVAmy MacDonald
p639
aVMelissa Etheridge
p640
aVLloyd Cole
p641
aVDown By Law
p642
aVChipmunk
p643
aVTristan Prettyman
p644
aVRobbie Robertson
p645
aVArab Strap
p646
aVDAVE MATTHEWS BAND
p647
aVJimmy Nail
p648
aVIm From Barcelona
p649
aVBrooke Fraser
p650
aVJacks Mannequin
p651
aVBoomkat
p652
aVSave Ferris
p653
aVOxmo Puccino
p654
aVAnjulie
p655
aVRAGHAV
p656
aVPatsy Cline
p657
aVDungen
p658
aVThis Providence
p659
aVLivingston Taylor
p660
aVVanilla Ninja
p661
aVLila Downs
p662
aVThe Lovin Spoonful
p663
aVLaleh
p664
aVDJ Bobo
p665
aVCamouflage
p666
aVHerbie Hancock
p667
aVXavier Rudd
p668
aVThe Coup
p669
aVPereza
p670
aVMC Hammer
p671
aVDarlene Love
p672
aVOn Thorns I Lay
p673
aVCKY
p674
aVLeo Sayer
p675
aVKim Carnes
p676
aVAnthony Evans
p677
aVScreaming Trees
p678
aVThe Bluebells
p679
aVJesse McCartney
p680
aVGillian Welch
p681
aVEddy Raven
p682
aVThe Rakes
p683
aVNo Age
p684
aVIda Maria
p685
aVBrutha
p686
aVFree
p687
aVMagnapop
p688
aVReel Big Fish
p689
aVGuy Sebastian
p690
aVScorpions
p691
aVWayman Tisdale
p692
aVTriumvirat
p693
aV3X Krazy
p694
aVTodd Snider
p695
aVIdina Menzel
p696
aVChimaira
p697
aVWilliam Elliott Whitmore
p698
aVAzure Ray
p699
aVBis
p700
aVGregg Allman
p701
aVTricky
p702
aVKym Marsh
p703
aVChromeo
p704
aVStrawberry Switchblade
p705
aVArnaldo Antunes
p706
aVNevertheless
p707
aVHuman League
p708
aVThe Incredible String Band
p709
aVThe Handsome Family
p710
aVLaura Marling
p711
aVWakefield
p712
aVWES
p713
aVBasshunter
p714
aVKenny Rogers
p715
aVGreat Lake Swimmers
p716
aVThe Temper Trap
p717
aVX
p718
aVLoretta Lynn
p719
aVGilbert OSullivan
p720
aVAndreas Johnson
p721
aVThe Beach Boys
p722
aVBig Punisher
p723
aVDeathstars
p724
aVKaiser Chiefs
p725
aVBob Rivers
p726
aVOi Va Voi
p727
aVERIC SARDINAS
p728
aVDispatch
p729
aVStrangelove
p730
aVJulie Doiron
p731
aVDESTRUCTION
p732
aVClinic
p733
aVMeat Puppets
p734
aVBo Diddley
p735
aVGene Pitney
p736
aVTeena Marie
p737
aVBoogie Down Productions
p738
aVAesop Rock
p739
aVSteve Wynn
p740
aVJill Scott
p741
aVAshlee Simpson
p742
aVBlack Box
p743
aVGhostface Killah
p744
aVDelta Spirit
p745
aVKenickie
p746
aVTrey Anastasio
p747
aVDemon Hunter
p748
aVDavid Lee Roth
p749
aVPortishead
p750
aVSister Hazel
p751
aVBettie Serveert
p752
aVZucchero
p753
aVNonpalidece
p754
aVBelly
p755
aVDaryl Hall
p756
aVDMX
p757
aVGravediggaz
p758
aVMichael Card
p759
aVNatalie Bassingthwaighte
p760
aVSebastien Schuller
p761
aVI Set My Friends On Fire
p762
aVDEATH ANGEL
p763
aVNeil Halstead
p764
aVBrotherhood Of Man
p765
aVLene Lovich
p766
aVThe Shaky Hands
p767
aVTammy Trent
p768
aVDolly Parton
p769
aVThe Meters
p770
aVFluke
p771
aVHeatmiser
p772
aVRosario
p773
aVFuture Of The Left
p774
aVM Ward
p775
aVAutour de Lucie
p776
aVBent
p777
aVCathedral
p778
aVBebe
p779
aVOrphaned Land
p780
aVClassified
p781
aVDaniel Merriweather
p782
aVEmmure
p783
aVPersuader
p784
aVOpeth
p785
aVThe Wedding Present
p786
aVDevendra Banhart
p787
aVToby Lightman
p788
aVMarissa Nadler
p789
aVSticky Fingaz
p790
aVPram
p791
aVThe Doors
p792
aVShabazz The Disciple
p793
aVSutton Foster
p794
aVShihad
p795
aVLeon Russell
p796
aVSol Invictus
p797
aVFlogging Molly
p798
aVDarwin Hobbs
p799
aVThe Stanley Brothers
p800
aVthe bird and the bee
p801
aVJLS
p802
aVPatty Larkin
p803
aVThe Human League
p804
aVChelsea Grin
p805
aVDepartment of Eagles
p806
aVSonic Syndicate
p807
aVThyrfing
p808
aVLaika
p809
aVTom Tom Club
p810
aVLaurie Anderson
p811
aVDon Omar
p812
aVLemar
p813
aVCentral Line
p814
aVSaez
p815
aVThe Decemberists
p816
aVScott Matthews
p817
aVGary Wright
p818
aVKMC
p819
aVBedouin Soundclash
p820
aVDropkick Murphys
p821
aVEskimo Joe
p822
aVI Mother Earth
p823
aVFannypack
p824
aVVeruca Salt
p825
aVVice Squad
p826
aVSnot
p827
aVFrankie Negron
p828
aVSharleen Spiteri
p829
aVJunior Kelly
p830
aVFreddie Jackson
p831
aVModern Talking
p832
aVAvalon
p833
aVLa Barranca
p834
aVShelby Lynne
p835
aVDa Brat
p836
aVSlade
p837
aVGrupo Niche
p838
aVBukka White
p839
aVConway Twitty
p840
aVAli Campbell
p841
aVDJ Tatana
p842
aVVic Chesnutt
p843
aVTim Armstrong
p844
aVFaron Young
p845
aVNina Simone
p846
aVEDGUY
p847
aVBad Religion
p848
aVJohn Scofield
p849
aVOver The Rhine
p850
aVHome Grown
p851
aVLou Christie
p852
aVDeborah Cox
p853
aVAdema
p854
aVLa Renga
p855
aVSaybia
p856
aVDeath Cab for Cutie
p857
aVBill Anderson
p858
aVKaren Dalton
p859
aVThe Guess Who
p860
aVSpinnerette
p861
aVLiberty X
p862
aVAlphaville
p863
aVVanilla Ice
p864
aVDiamond Rio
p865
aVDave Mason
p866
aVGian Marco
p867
aVHeltah Skeltah
p868
aVCaviar
p869
aVThree Dog Night
p870
aVThe Mooney Suzuki
p871
aVChris Thile
p872
aVSigue Sigue Sputnik
p873
aVThe Gourds
p874
aVDonovan
p875
aVThe Vandals
p876
aVDon Francisco
p877
aVLittle Willie John
p878
aVDo Or Die
p879
aVCursive
p880
aVKristinia DeBarge
p881
aVMichael Learns To Rock
p882
aVSondre Lerche
p883
aVJudas Priest
p884
aVMecano
p885
aVEric Carmen
p886
aVElectrelane
p887
aVThe Innocence Mission
p888
aVLos Abuelos De La Nada
p889
aVPhilipp Poisel
p890
aVRonan Keating
p891
aVThe Fold
p892
aVCyndi Lauper
p893
aVGrand Theft Audio
p894
aVThe Trammps
p895
aVEmily West
p896
aVBig Drill Car
p897
aVBodyrockers
p898
aVType O Negative
p899
aVRachael Lampa
p900
aVGary Numan
p901
aVCarl Perkins
p902
aVMarracash
p903
aVBlu Cantrell
p904
aVChiasm
p905
aVMIMS
p906
aVNina Hagen
p907
aVEl Otro Yo
p908
aVJunior Kimbrough
p909
aVFranco Battiato
p910
aVSkye
p911
aVAllister
p912
aVSentidos Opuestos
p913
aVShed Seven
p914
aVIdeal
p915
aVCherish
p916
aVCarpenters
p917
aVRAUNCHY
p918
aVGilby Clarke
p919
aVNITIN SAWHNEY
p920
aVMacy Gray
p921
aVJoann Rosario
p922
aVTimi Yuro
p923
aVShakin Stevens
p924
aVThe Pointer Sisters
p925
aVKinnie Starr
p926
aVThe Soviettes
p927
aVThe Devil Wears Prada
p928
aVWilson Phillips
p929
aVRoger Waters
p930
aVSchool Of Fish
p931
aVThe Lucksmiths
p932
aVPhish
p933
aVJon McLaughlin
p934
aVJ Church
p935
aVThe Brian Jonestown Massacre
p936
aVDeine Lakaien
p937
aVHayley Westenra
p938
aVCarla Thomas
p939
aVNeutral Milk Hotel
p940
aVAmbulance Ltd
p941
aVWet Willie
p942
aVBig Brovaz
p943
aVAllan Holdsworth
p944
aVHank Williams
p945
aVKrum Bums
p946
aVAmaral
p947
aVBing Crosby
p948
aVJohn Michael Montgomery
p949
aVElla Fitzgerald
p950
aVInstitute
p951
aVThe Vindictives
p952
aVKevon Edmonds
p953
aVAssemblage 23
p954
aVPaul Anka
p955
aVThe Courteeners
p956
aVLongpigs
p957
aVDeana Carter
p958
aVSalif Keita
p959
aVHandsome Furs
p960
aVBang Tango
p961
aVOxymoron
p962
aVBrazilian Girls
p963
aVEddie Kendricks
p964
aVCirrus
p965
aVMindy Smith
p966
aVLeftfield
p967
aVIn Flames
p968
aVfIREHOSE
p969
aVSistars
p970
aVNocturnal Rites
p971
aVCollective Soul
p972
aVShirley Bassey
p973
aVAmy Studt
p974
aVLadyhawke
p975
aVThe Black Halos
p976
aVPierangelo Bertoli
p977
aVBig Daddy Weave
p978
aVDanko Jones
p979
aVEuge Groove
p980
aVKylie Minogue
p981
aVThe Lonely Island
p982
aVtobyMac
p983
aVGaither Vocal Band
p984
aVTwista
p985
aVCurved Air
p986
aVCinema Bizarre
p987
aVMindy McCready
p988
aVIan Hunter
p989
aVSoulive
p990
aVFler
p991
aVBizzy Bone
p992
aVGlen Campbell
p993
aVJohn Stevens
p994
aVMillion Dead
p995
aVHaddaway
p996
aVDub War
p997
aVHuey Dunbar
p998
aVNatalia Oreiro
p999
aVMatmatah
p1000
aVNouvelle Vague
p1001
aVPaul Overstreet
p1002
aVGilberto Santa Rosa
p1003
aVStealers Wheel
p1004
aVKellie Pickler
p1005
aVSwans
p1006
aVBaumer
p1007
aVDave Barnes
p1008
aVOne Minute Silence
p1009
aVMarisa Monte
p1010
aVMillie Jackson
p1011
aVSPICE 1
p1012
aVMark Wills
p1013
aVRoberta Gambarini
p1014
aVSoweto
p1015
aVFreshlyground
p1016
aVThe Watchmen
p1017
aVThe Crash
p1018
aVBrooke Valentine
p1019
aVThe Ronettes
p1020
aVMe First And The Gimme Gimmes
p1021
aVCheryl Wheeler
p1022
aVAlter Bridge
p1023
aVJadon Lavik
p1024
aVRenan Luce
p1025
aVBarry White
p1026
aVMotherlode
p1027
aVMercury Rev
p1028
aVThey Might Be Giants
p1029
aV31Knots
p1030
aVShearwater
p1031
aVThe Adverts
p1032
aVBelleruche
p1033
aVGirls Under Glass
p1034
aVMarc Almond
p1035
aVMelody Club
p1036
aVZakk Wylde
p1037
aVFort Minor
p1038
aVHeart
p1039
aVJames
p1040
aVAthlete
p1041
aVToo Much Joy
p1042
aVBacilos
p1043
aVThe Monochrome Set
p1044
aVDigitalism
p1045
aVCombichrist
p1046
aVSara Groves
p1047
aVWitchcraft
p1048
aVJune Carter Cash
p1049
aVopm
p1050
aVWorld Party
p1051
aVPentagram
p1052
aVArchitecture In Helsinki
p1053
aVKT Tunstall
p1054
aVNik Kershaw
p1055
aVNitzer Ebb
p1056
aVHELLYEAH
p1057
aVPendulum
p1058
aVArch Enemy
p1059
aVChris Knight
p1060
aVOzark Mountain Daredevils
p1061
aVKosheen
p1062
aVThe Zombies
p1063
aVBabyshambles
p1064
aVTin Machine
p1065
aVLift To Experience
p1066
aVTen Foot Pole
p1067
aVWeeping Willows
p1068
aVDogwood
p1069
aVAlcazar
p1070
aVDubstar
p1071
aVLordi
p1072
aVAzul Violeta
p1073
aVCatupecu Machu
p1074
aVManafest
p1075
aVBasia
p1076
aVBiohazard
p1077
aVDonnie
p1078
aVMaelo Ruiz
p1079
aVSoul Asylum
p1080
aVVybz Kartel
p1081
aVDredg
p1082
aVLita Ford
p1083
aVMark Lanegan
p1084
aVHundred Reasons
p1085
aVShaye
p1086
aVArsis
p1087
aVMos Def
p1088
aVNick Lachey
p1089
aVgalactic cowboys
p1090
aVStray Cats
p1091
aVElisabeth Withers
p1092
aVDaryl Braithwaite
p1093
aVThe Waterboys
p1094
aVBrainstorm
p1095
aVLacrimosa
p1096
aVBlackfoot
p1097
aVLisa Marie Presley
p1098
aVJessica Andrews
p1099
aVPoint Of Grace
p1100
aVKidz Bop Kids
p1101
aVAbba
p1102
aVHalestorm
p1103
aVStarflyer 59
p1104
aVKirsty Hawkshaw
p1105
aVTanya Donelly
p1106
aVRebelution
p1107
aVDead Boys
p1108
aVBebel Gilberto
p1109
aVSquirtgun
p1110
aVShalamar
p1111
aVThat Petrol Emotion
p1112
aVRobin Thicke
p1113
aVMustard Plug
p1114
aVThe Fabulous Thunderbirds
p1115
aVEurope
p1116
aVBrian Hyland
p1117
aVGarland Jeffreys
p1118
aVDeborah Harry
p1119
aVRita Lee
p1120
aVClutch
p1121
aVMason Jennings
p1122
aVDave Loggins
p1123
aVAir Supply
p1124
aVNamnambulu
p1125
aVElizabeth Mitchell
p1126
aVTommy Stinson
p1127
aVAereogramme
p1128
aVMagic Dirt
p1129
aVUh Huh Her
p1130
aVMonster Magnet
p1131
aVOld 97s
p1132
aVBlahzay Blahzay
p1133
aVBleu
p1134
aVCreedence Clearwater Revisited
p1135
aVArk
p1136
aVFindlay Brown
p1137
aVAnna Waronker
p1138
aVNorma Jean
p1139
aVThe Move
p1140
aVRogue Traders
p1141
aVMojave 3
p1142
aVEchobelly
p1143
aVSacred Reich
p1144
aVThe Tragically Hip
p1145
aVPrince
p1146
aVPeaches
p1147
aVBlue States
p1148
aVCalico System
p1149
aVScarface
p1150
aVJohnossi
p1151
aVThe Golden Dogs
p1152
aVLuis Eduardo Aute
p1153
aVThe Emotions
p1154
aVFolk Implosion
p1155
aVRuthie Foster
p1156
aVGo West
p1157
aVKing Tee
p1158
aVKrayzie Bone
p1159
aVThe Mighty Mighty Bosstones
p1160
aVThe Replacements
p1161
aVRobbie Nevil
p1162
aVManuel Carrasco
p1163
aVRachelle Ferrell
p1164
aVShitdisco
p1165
aVSweetback
p1166
aVLa Frontera
p1167
aVTodd Rundgren
p1168
aVChris Botti
p1169
aVMark Ronson
p1170
aVPoison
p1171
aVRosanne Cash
p1172
aVAvail
p1173
aVSkip James
p1174
aVYvonne Elliman
p1175
aVClaire Lynch
p1176
aVEsperanza Spalding
p1177
aVChetes
p1178
aVDon McLean
p1179
aVBalligomingo
p1180
aVShannon McNally
p1181
aVFey
p1182
aVJurassic 5
p1183
aVSuffocation
p1184
aVHabeas Corpus
p1185
aVAdina Howard
p1186
aVStatus Quo
p1187
aVGuillemots
p1188
aVFour Year Strong
p1189
aVThe Tallest Man On Earth
p1190
aVDevics
p1191
aVLatyrx
p1192
aVDog Fashion Disco
p1193
aVMustasch
p1194
aVDeadsoil
p1195
aVMoke
p1196
aVEvergrey
p1197
aVBrett Anderson
p1198
aVCreeper Lagoon
p1199
aVCalexico
p1200
aVSodom
p1201
aVOrchestral Manoeuvres In The Dark
p1202
aVJigsaw
p1203
aVMastodon
p1204
aVMamonas Assassinas
p1205
aVKevin Michael
p1206
aVSinik
p1207
aVDada
p1208
aVBaader Meinhof
p1209
aVPhil Coulter
p1210
aVDigital Underground
p1211
aVKirsty MacColl
p1212
aVDub Pistols
p1213
aVRocko
p1214
aVUs3
p1215
aVKid Cudi
p1216
aVThe Style Council
p1217
aVJessie Baylin
p1218
aVMystikal
p1219
aVEastmountainsouth
p1220
aVLimbeck
p1221
aVMoneybrother
p1222
aVPeter Gallagher
p1223
aVCuriosity Killed The Cat
p1224
aVJo Jo Gunne
p1225
aVThe Autumn Offering
p1226
aVArmand Van Helden
p1227
aVisis
p1228
aVBig Wreck
p1229
aVThe Lightning Seeds
p1230
aVEllis Paul
p1231
aVLes Savy Fav
p1232
aVDavid Summers
p1233
aVGary Go
p1234
aVLil Scrappy
p1235
aVThe Cars
p1236
aVImmolation
p1237
aVModjo
p1238
aVKat DeLuna
p1239
aVBruce Willis
p1240
aVThe Delgados
p1241
aVRyan Shaw
p1242
aVZero 7
p1243
aVIce Cube
p1244
aVMutemath
p1245
aVDISMEMBER
p1246
aVElectronic
p1247
aVHopes Die Last
p1248
aVRhett Miller
p1249
aVCream
p1250
aVCrowded House
p1251
aVNatasha Bedingfield
p1252
aVStone Sour
p1253
aVSusan Ashton
p1254
aVVan Hunt
p1255
aVJuliet
p1256
aVLocal Natives
p1257
aVChromatics
p1258
aVSexion dAssaut
p1259
aVKoufax
p1260
aVNo Mercy
p1261
aVKurt Nilsen
p1262
aVBertie Higgins
p1263
aVSia
p1264
aVBelouis Some
p1265
aVMissy Higgins
p1266
aVEnvelopes
p1267
aVDik Dik
p1268
aVTimoria
p1269
aVCarbon Leaf
p1270
aVThe Hurt Process
p1271
aVAce of Base
p1272
aVBirdie
p1273
aVSheena Easton
p1274
aVNaked Aggression
p1275
aVDon Dokken
p1276
aVDepswa
p1277
aVUgly Kid Joe
p1278
aVBuju Banton
p1279
aVEwan MacColl
p1280
aVGorefest
p1281
aVKevin Ayers
p1282
aVAnn Wilson
p1283
aVLaid Back
p1284
aVBuckcherry
p1285
aVCalvin Harris
p1286
aVJosh Hoge
p1287
aVJustin Bieber
p1288
aVAfter The Fall
p1289
aVCharley Pride
p1290
aVPreston School Of Industry
p1291
aVNothingface
p1292
aVRobbie Williams
p1293
aVMarcel
p1294
aVLittle Man Tate
p1295
aVVenus Hum
p1296
aVNeville Brothers
p1297
aVThornley
p1298
aVKris Kross
p1299
aVInstruction
p1300
aVThe Clientele
p1301
aVThe Meteors
p1302
aVHearSay
p1303
aV33Miles
p1304
aVEmmy The Great
p1305
aVAlborosie
p1306
aVCharlie Feathers
p1307
aVDonald Fagen
p1308
aVThe Gun Club
p1309
aVThe Cribs
p1310
aVChaka Khan
p1311
aVBobby Womack
p1312
aVCult Of Luna
p1313
aVMarshall Crenshaw
p1314
aVStabbing Westward
p1315
aVAttaque 77
p1316
aVThe Statler Brothers
p1317
aVLykke Li
p1318
aVMeat Beat Manifesto
p1319
aVzebrahead
p1320
aVPaul Davis
p1321
aVHarem Scarem
p1322
aVChuck Berry
p1323
aVMadness
p1324
aVEmmylou Harris
p1325
aVDiana King
p1326
aVDanger Danger
p1327
aVBert Kaempfert
p1328
aVTony Sly
p1329
aVEnrico Macias
p1330
aVBill Engvall
p1331
aVBernard Butler
p1332
aVDragonette
p1333
aVBurt Bacharach
p1334
aVAtreyu
p1335
aVDead Moon
p1336
aVDave Brubeck
p1337
aVEarshot
p1338
aVShiny Toy Guns
p1339
aVRocky Votolato
p1340
aVHit The Lights
p1341
aVPaul Young
p1342
aVIam
p1343
aVBrand New
p1344
aVKarrin Allyson
p1345
aVPati Yang
p1346
aVV
p1347
aVReality Check
p1348
aVMarvin Sapp
p1349
aVTiga
p1350
aVJah Cure
p1351
aVHEATHEN
p1352
aVPrime STH
p1353
aVBigwig
p1354
aVSarah Cracknell
p1355
aVSilver Scooter
p1356
aVEngineers
p1357
aVRoxy Music
p1358
aVBrian Wilson
p1359
aVMotion City Soundtrack
p1360
aVConflict
p1361
aVSkinlab
p1362
aVMaldita Nerea
p1363
aVNew Edition
p1364
aVThe Departure
p1365
aVArtifacts
p1366
aVToto Cutugno
p1367
aVThe Psychedelic Furs
p1368
aVMandrill
p1369
aVSam Cooke
p1370
aVJames Blunt
p1371
aVLyle Lovett
p1372
aVBroadcast
p1373
aVTiromancino
p1374
aVClit 45
p1375
aVDavid Sylvian
p1376
aVThe Perishers
p1377
aVJimmy Webb
p1378
aVDamien Dempsey
p1379
aVTammy Wynette
p1380
aVNuclear Assault
p1381
aVMoney Mark
p1382
aVLa Bouche
p1383
aVBrown Boy
p1384
aVSpacehog
p1385
aVAlain Souchon
p1386
aVCharlotte Hatherley
p1387
aVOperation Ivy
p1388
aVBilly Ray Cyrus
p1389
aVThe Prodigy
p1390
aVUtah Saints
p1391
aVManchester Orchestra
p1392
aVUrsula 1000
p1393
aVDef Squad
p1394
aVLea Salonga
p1395
aVErykah Badu
p1396
aVKemopetrol
p1397
aVHayseed Dixie
p1398
aVTownes Van Zandt
p1399
aVImelda May
p1400
aVJuanes
p1401
aVFlyleaf
p1402
aVMy Dying Bride
p1403
aVKelly Clarkson
p1404
aVTorture Killer
p1405
aVLunascape
p1406
aVBoz Scaggs
p1407
aVEagles Of Death Metal
p1408
aVDARKANE
p1409
aVLudacris
p1410
aVEve 6
p1411
aVMaurette Brown Clark
p1412
aVFeeder
p1413
aVDel The Funky Homosapien
p1414
aVLady GaGa
p1415
aVPeccatum
p1416
aVThe Mills Brothers
p1417
aVGyptian
p1418
aVGroove Armada
p1419
aVThe Darkness
p1420
aVOne Man Army
p1421
aVBand Of Horses
p1422
aVToxic Narcotic
p1423
aVThe Bellamy Brothers
p1424
aVInsyderz
p1425
aVNevio
p1426
aVFigurines
p1427
aVKent
p1428
aVBloc Party
p1429
aVRes
p1430
aVAmaia Montero
p1431
aVCheap Trick
p1432
aVArcadia
p1433
aVThe Gift
p1434
aVDarwin Deez
p1435
aVQueen Latifah
p1436
aVCilla Black
p1437
aVOn The Last Day
p1438
aVPeter Green
p1439
aVPhotek
p1440
aVCutting Crew
p1441
aVRed
p1442
aVSandy Posey
p1443
aVSaul Williams
p1444
aVHappy Mondays
p1445
aVMemphis La Blusera
p1446
aVNKlabe
p1447
aVThe Walkabouts
p1448
aVSleepy Brown
p1449
aVAlan Parsons
p1450
aVRey Ruiz
p1451
aVEverclear
p1452
aVLed Zeppelin
p1453
aVThe Last Goodnight
p1454
aVAnnie Haslam
p1455
aVMartha Reeves
p1456
aVHurts
p1457
aVJet Lag Gemini
p1458
aVTavares
p1459
aVMC Ren
p1460
aVAlejandro Sanz
p1461
aVViolent Femmes
p1462
aVThe Blood Brothers
p1463
aVBobby Blue Bland
p1464
aVLorrie Morgan
p1465
aVBushido
p1466
aVAphrodites Child
p1467
aVMarty Stuart
p1468
aVAlejandro Escovedo
p1469
aVValue Pac
p1470
aVZeromancer
p1471
aVRemy Shand
p1472
aVDead Prez
p1473
aVFight Paris
p1474
aVRunning Wild
p1475
aVStrata
p1476
aVNew Found Glory
p1477
aVMuddy Waters
p1478
aVEdwin McCain
p1479
aVDarin
p1480
aVElement Eighty
p1481
aVProyecto Uno
p1482
aVMichael Jackson
p1483
aVVern Gosdin
p1484
aVJuvenile
p1485
aVBuzzcocks
p1486
aVPerry Blake
p1487
aVWilson Simonal
p1488
aVCatherine Feeny
p1489
aVEleni Mandell
p1490
aVLuca Carboni
p1491
aVRaekwon
p1492
aVLatimore
p1493
aVTravis
p1494
aVDianne Reeves
p1495
aVToy Dolls
p1496
aVCerys Matthews
p1497
aVNoah Georgeson
p1498
aVI Am Kloot
p1499
aVMarmalade
p1500
aVAndy Stochansky
p1501
aVCulture Club
p1502
aVUB40
p1503
aVField Music
p1504
aVCascada
p1505
aVCharlotte Martin
p1506
aVDiscipline
p1507
aVLifer
p1508
aVDavid Banner
p1509
aVIration
p1510
aVRandy Houser
p1511
aVJacques Higelin
p1512
aVGod Lives Underwater
p1513
aVTina Dico
p1514
aVSarina Paris
p1515
aVThe Wedding
p1516
aVANGELZOOM
p1517
aVSusanna Hoffs
p1518
aVWithin Temptation
p1519
aVWe Are The Ocean
p1520
aVRaheem Devaughn
p1521
aVAthena Cage
p1522
aVNikka Costa
p1523
aVPlumb
p1524
aVRare Bird
p1525
aVTonic
p1526
aVEmperor
p1527
aVRyanDan
p1528
aVGoatwhore
p1529
aVVoice Of The Beehive
p1530
aVKim Wilde
p1531
aVLeft Alone
p1532
aVStemm
p1533
aVKimberley Locke
p1534
aVFelt
p1535
aVThe Mars Volta
p1536
aVDick Annegarn
p1537
aVRa Ra Riot
p1538
aVUlver
p1539
aVGare du Nord
p1540
aVPuressence
p1541
aVStephen Duffy
p1542
aVAltan
p1543
aVDolores ORiordan
p1544
aVFerraby Lionheart
p1545
aVWagon Christ
p1546
aVScott Stapp
p1547
aVHardline
p1548
aVIsabella Taviani
p1549
aVRaimundos
p1550
aVThe Big Pink
p1551
aVGenitallica
p1552
aVClay Walker
p1553
aVMariza
p1554
aVBond
p1555
aVHazel OConnor
p1556
aVDefault
p1557
aVHurricane
p1558
aVWebb Pierce
p1559
aVGoapele
p1560
aVFoo Fighters
p1561
aVJimmy Cliff
p1562
aVSoulwax
p1563
aVThe Samples
p1564
aVXTC
p1565
aVLos Fabulosos Cadillacs
p1566
aVInterpol
p1567
aVDeadsy
p1568
aVSaosin
p1569
aVKyle Riabko
p1570
aVKrypteria
p1571
aVJoanna Wang
p1572
aVCuca
p1573
aVDannii Minogue
p1574
aVSheavy
p1575
aVThe Roots
p1576
aVMoe Bandy
p1577
aVTalib Kweli
p1578
aVEarlimart
p1579
aVAlton Ellis
p1580
aVRosie Thomas
p1581
aVGorillaz
p1582
aVDan Sartain
p1583
aVDebbie Gibson
p1584
aVThe Runaways
p1585
aVSmokie
p1586
aVPleymo
p1587
aVArchive
p1588
aVOtep
p1589
aVKelly Joe Phelps
p1590
aVAlcatrazz
p1591
aVSloppy Seconds
p1592
aVDaze
p1593
aVLoudness
p1594
aVAnointed
p1595
aVYonder Mountain String Band
p1596
aVMeat Loaf
p1597
aVDoyle Bramhall
p1598
aVRichie Spice
p1599
aVThe Slits
p1600
aVGorky Park
p1601
aVSugarplum Fairy
p1602
aVNonpoint
p1603
aVTaylor Swift
p1604
aVMartin Gore
p1605
aVJudy Garland
p1606
aVKalmah
p1607
aVKarla Bonoff
p1608
aVPropellerheads
p1609
aVBuddy Miller
p1610
aVAngtoria
p1611
aVSteel Pulse
p1612
aVRalph McTell
p1613
aVSantigold
p1614
aVPedro Aznar
p1615
aVDionysos
p1616
aVOasis
p1617
aVMorten Harket
p1618
aVThe Gits
p1619
aVExtremoduro
p1620
aVThe Babys
p1621
aVJuelz Santana
p1622
aVThe Chameleons UK
p1623
aVEl Chicano
p1624
aVRoberta Flack
p1625
aVLuis Enrique
p1626
aVKevin Max
p1627
aVThe Marcels
p1628
aVGordon Lightfoot
p1629
aVBettye Lavette
p1630
aVColin Blunstone
p1631
aVSilly Wizard
p1632
aVLeonard Cohen
p1633
aVClay Aiken
p1634
aVHeaven 17
p1635
aVCurve
p1636
aVAvant
p1637
aVCassandra Wilson
p1638
aVTelecast
p1639
aVKing Harvest
p1640
aVAlice Peacock
p1641
aVMel Carter
p1642
aVRandy Newman
p1643
aVCake
p1644
aVOctober Tide
p1645
aVKings Of Convenience
p1646
aVIsmael Serrano
p1647
aVThe Concretes
p1648
aVElla Baila Sola
p1649
aVBarlowGirl
p1650
aVThe Streets
p1651
aVLivin Joy
p1652
aVThe Vogues
p1653
aVBlack Sabbath
p1654
aVRemy Ma
p1655
aVCorey Hart
p1656
aVNatiruts
p1657
aVD4L
p1658
aVDogs Eye View
p1659
aVKurt Elling
p1660
aVSteeleye Span
p1661
aVCounterfit
p1662
aVNil Lara
p1663
aVGreeley Estates
p1664
aVFreddy Cannon
p1665
aVThe Grates
p1666
aVAllison Iraheta
p1667
aVLeona Naess
p1668
aVCavalera Conspiracy
p1669
aVThe Black Eyed Peas
p1670
aVBeanie Sigel
p1671
aVAshton Allen
p1672
aVThe Selecter
p1673
aVVanessa Daou
p1674
aVKris Kristofferson
p1675
aVJon Secada
p1676
aVKing Floyd
p1677
aVRay Quinn
p1678
aVMarco Masini
p1679
aVRihanna
p1680
aVImperial Teen
p1681
aVTLC
p1682
aVTHE CHIFFONS
p1683
aVEmilio Navaira
p1684
aVCornershop
p1685
aVCoconut Records
p1686
aVJosh Ritter
p1687
aVThe Offspring
p1688
aVRed House Painters
p1689
aVCoal Chamber
p1690
aVHinder
p1691
aVThe Aliens
p1692
aVDamien Rice
p1693
aVOleander
p1694
aVEnchant
p1695
aVLa Fuga
p1696
aVKenny Loggins
p1697
aVFenix TX
p1698
aVZug Izland
p1699
aVTom Waits
p1700
aVThird World
p1701
aVSatyricon
p1702
aVCindy Morgan
p1703
aVRay Davies
p1704
aVFalco
p1705
aVElectric Light Orchestra
p1706
aVThurston Moore
p1707
aVInfected Mushroom
p1708
aVKutless
p1709
aVJorge Drexler
p1710
aVConor Oberst
p1711
aVDJ Shadow
p1712
aVRobert Wyatt
p1713
aVBob Dylan
p1714
aVMemphis Bleek
p1715
aVNattefrost
p1716
aVJorn
p1717
aVSeven Places
p1718
aVYoung Gunz
p1719
aVMarvin Sease
p1720
aVCarlos Ponce
p1721
aVOzark Henry
p1722
aVMary Chapin Carpenter
p1723
aVThe Box Tops
p1724
aVRobert Johnson
p1725
aVAquanote
p1726
aVNeneh Cherry
p1727
aVAlbert King
p1728
aVFrou Frou
p1729
aVThe Muffs
p1730
aVStarfield
p1731
aVDave Alvin
p1732
aVZeke
p1733
aVPaul Rodgers
p1734
aVTommy Castro
p1735
aVCharlotte Gainsbourg
p1736
aVVital Remains
p1737
aVSilence 4
p1738
aVSean Lennon
p1739
aVFishbone
p1740
aVWendy Matthews
p1741
aVConjure One
p1742
aVDay Of Fire
p1743
aVGeri Halliwell
p1744
aVLavender Diamond
p1745
aVMando Diao
p1746
aVKajagoogoo
p1747
aVArctic Monkeys
p1748
aVAnthrax
p1749
aVBlinded Black
p1750
aVJacob Miller
p1751
aVMelanie Fiona
p1752
aVLifehouse
p1753
aVMarilyn Manson
p1754
aVBroken Social Scene
p1755
aVTracy Bonham
p1756
aVMac Davis
p1757
aVProfessional Murder Music
p1758
aVPretty Boy Floyd
p1759
aVRed Red Meat
p1760
aVThe Germs
p1761
aVSoilwork
p1762
aVMF Grimm
p1763
aVChico DeBarge
p1764
aVLive
p1765
aVFurther Seems Forever
p1766
aVKapanga
p1767
aVKeren Ann
p1768
aVM People
p1769
aVKilling Joke
p1770
aVRoberto Roena
p1771
aVTift Merritt
p1772
aVShyheim
p1773
aVMott The Hoople
p1774
aVUGK
p1775
aVLe Tigre
p1776
aVShai
p1777
aVWheat
p1778
aVClor
p1779
aV2 Skinnee Js
p1780
aVScreeching Weasel
p1781
aVCasey Jones
p1782
aVKelis
p1783
aVAnarbor
p1784
aVUncle Kracker
p1785
aVLoverboy
p1786
aVJourney
p1787
aVGorerotted
p1788
aVLighter Shade of Brown
p1789
aVHannah Montana
p1790
aVEnter Shikari
p1791
aVBadfinger
p1792
aVMark Chesnutt
p1793
aVLincoln Brewster
p1794
aVSon Of Dork
p1795
aVBunny Wailer
p1796
aVThe Moody Blues
p1797
aVThe Dresden Dolls
p1798
aVPorno For Pyros
p1799
aVAugie March
p1800
aVRaul Malo
p1801
aVBo Kaspers Orkester
p1802
aVKate Wolf
p1803
aVIan McCulloch
p1804
aVAdrian Gurvitz
p1805
aVSoprano
p1806
aVSo
p1807
aVThree 6 Mafia
p1808
aVJosh Pyke
p1809
aVThe Afghan Whigs
p1810
aVConfederate Railroad
p1811
aVEnrique Iglesias
p1812
aVSham 69
p1813
aVScouting for Girls
p1814
aVThe Flying Lizards
p1815
aVEverybody Else
p1816
aVLucerin Blue
p1817
aVDiscount
p1818
aVSammie
p1819
aVIronik
p1820
aVThe Wreckers
p1821
aVKathryn Williams
p1822
aVMelissa Manchester
p1823
aVBeach House
p1824
aVStephanie Mills
p1825
aVSimian
p1826
aVNiacin
p1827
aVMarit Larsen
p1828
aVLongview
p1829
aVLyrics Born
p1830
aVLa Portuaria
p1831
aVGiant
p1832
aVZebda
p1833
aVATB
p1834
aVTrespassers William
p1835
aVSaint Etienne
p1836
aVSix by Seven
p1837
aVWeird Al Yankovic
p1838
aVDestroyer 666
p1839
aVDavid Mead
p1840
aVUmphreys McGee
p1841
aVLo Fidelity Allstars
p1842
aVWhatever It Takes
p1843
aVNew Model Army
p1844
aVKarl Wolf
p1845
aVAshley Parker Angel
p1846
aVRunrig
p1847
aVFever Ray
p1848
aVDir en grey
p1849
aVChrisette Michele
p1850
aVMartha And The Muffins
p1851
aVBlumentopf
p1852
aVHer Space Holiday
p1853
aVBury Your Dead
p1854
aVBoy George
p1855
aVHefner
p1856
aVMarty Wilde
p1857
aVQuique Neira
p1858
aVCollin Raye
p1859
aVPretenders
p1860
aVWill Smith
p1861
aVChris Cagle
p1862
aVFattburger
p1863
aVElton John
p1864
aVCharlie Wilson
p1865
aVMonifah
p1866
aVKurtis Blow
p1867
aVkeller williams
p1868
aVMargo Guryan
p1869
aVAmel Larrieux
p1870
aVAdriana Calcanhotto
p1871
aVThe Wolfgang Press
p1872
aVDelphic
p1873
aVLuar Na Lubre
p1874
aVElefante
p1875
aVCaliban
p1876
aVObie Trice
p1877
aVOmen
p1878
aVRubyhorse
p1879
aVBlackstreet
p1880
aVSkin
p1881
aVDevo
p1882
aVThe Cruel Sea
p1883
aVRichie Havens
p1884
aVThe Little Willies
p1885
aVBusted
p1886
aVBlack N Blue
p1887
aVTommy Makem
p1888
aVSlaid Cleaves
p1889
aVblessthefall
p1890
aVYour Vegas
p1891
aVSnoop Dogg
p1892
aVBernard Fanning
p1893
aVGinny Owens
p1894
aVAtmosphere
p1895
aVAfroman
p1896
aVLove
p1897
aVOrenda Fink
p1898
aVThe Rutles
p1899
aVThe Specials
p1900
aVSECRET SPHERE
p1901
aVVex Red
p1902
aVEddy Mitchell
p1903
aVDavid Kitt
p1904
aVBad Boys Blue
p1905
aVZebra
p1906
aVMatt Redman
p1907
aVNicolette Larson
p1908
aVEighteen Visions
p1909
aVFrightened Rabbit
p1910
aVGlenn Tipton
p1911
aVLady Saw
p1912
aVDavid Usher
p1913
aVSammy Kershaw
p1914
aVGrade 8
p1915
aVSugarcult
p1916
aVTiny Tim
p1917
aVParis Hilton
p1918
aVBeth Orton
p1919
aVGoldie Lookin Chain
p1920
aVJovanotti
p1921
aVPhantom Planet
p1922
aVJim White
p1923
aVBritney Spears
p1924
aVDennis DeYoung
p1925
aVCali
p1926
aVFlight Of The Conchords
p1927
aVThe Cat Empire
p1928
aVAlice Cooper
p1929
aVTranzas
p1930
aVYouth Brigade
p1931
aVChingy
p1932
aV12 Stones
p1933
aVKeyshia Cole
p1934
aVPaul Wright
p1935
aVSWV
p1936
aVDiecast
p1937
aVHybrid
p1938
aVSizzla
p1939
aVKlaatu
p1940
aVFragments Of Unbecoming
p1941
aVJustin Nozuka
p1942
aVRefused
p1943
aVThe Isley Brothers
p1944
aVCranes
p1945
aVIn Extremo
p1946
aVCole Porter
p1947
aVBill Fay
p1948
aVBrother Cane
p1949
aVHelen Humes
p1950
aVDirty Pretty Things
p1951
aVCorrosion Of Conformity
p1952
aVLloyd
p1953
aVRoger Daltrey
p1954
aVKilling The Dream
p1955
aVColin James
p1956
aVAqua
p1957
aVDido
p1958
aVDeath In Vegas
p1959
aVChristie Front Drive
p1960
aVKaran Casey
p1961
aVTankard
p1962
aVMax Romeo
p1963
aVPavement
p1964
aVLCD Soundsystem
p1965
aVCiccone Youth
p1966
aVRichie Sambora
p1967
aVErnie Halter
p1968
aVAll Time Low
p1969
aVKeane
p1970
aVHeather Small
p1971
aVCynic
p1972
aVSINERGY
p1973
aVRoyal Crown Revue
p1974
aVFrench Affair
p1975
aVTodd Agnew
p1976
aVCher
p1977
aVWhodini
p1978
aVTegan And Sara
p1979
aVGrand Puba
p1980
aVSeabound
p1981
aVHank Snow
p1982
aVSpiderbait
p1983
aVAshanti
p1984
aVMelba Montgomery
p1985
aVVader
p1986
aVFatboy Slim
p1987
aVDolcenera
p1988
aVGovt Mule
p1989
aVRenato Russo
p1990
aVTIMO TOLKKI
p1991
aVDar Williams
p1992
aVPixies
p1993
aVAdam Lambert
p1994
aVThe xx
p1995
aVBlue
p1996
aVFamiliar 48
p1997
aVBlack Star
p1998
aVThe Swell Season
p1999
aVFerlin Husky
p2000
aVSky
p2001
aVJames Taylor
p2002
aVAt The Gates
p2003
aVMarc Anthony
p2004
aVAnna Ternheim
p2005
aVWhite Zombie
p2006
aVLeon Redbone
p2007
aVHooverphonic
p2008
aVJesse Cook
p2009
aVJolie Holland
p2010
aVKenny Lattimore
p2011
aVBlack Oak Arkansas
p2012
aVGal Costa
p2013
aVAndy Bell
p2014
aVBreathe
p2015
aVLoudon Wainwright III
p2016
aVNikola Sarcevic
p2017
aVBrave Saint Saturn
p2018
aVAudrye Sessions
p2019
aVAs Cities Burn
p2020
aVTom McRae
p2021
aVWoody Guthrie
p2022
aVPete Yorn
p2023
aVKansas
p2024
aVButch Walker
p2025
aVFuneral For A Friend
p2026
aVNick Drake
p2027
aVBreakbeat Era
p2028
aVBackstreet Boys
p2029
aVSolas
p2030
aVFisher
p2031
aVEastern Conference Champions
p2032
aVLittle Joy
p2033
aVMadvillain
p2034
aVMoonspell
p2035
aVZiggy Marley
p2036
aVMick Karn
p2037
aVChairlift
p2038
aVVoodoo Glow Skulls
p2039
aVFront 242
p2040
aVMarina Lima
p2041
aVFats Domino
p2042
aVHouse Of Pain
p2043
aVSilkk The Shocker
p2044
aVCajun Dance Party
p2045
aVThe Luniz
p2046
aVPowerman 5000
p2047
aVMagazine
p2048
aVDeniece Williams
p2049
aVTurin Brakes
p2050
aVCorinne Bailey Rae
p2051
aVDavid Houston
p2052
aVBilly Corgan
p2053
aVHarold Melvin
p2054
aVShawnna
p2055
aVCity High
p2056
aVThe Pains Of Being Pure At Heart
p2057
aVNo Use For A Name
p2058
aVKate Voegele
p2059
aVImmaculate Fools
p2060
aVThis Beautiful Republic
p2061
aVBilly Klippert
p2062
aVGRAVEWORM
p2063
aVSin Bandera
p2064
aVGhostland Observatory
p2065
aVMC Eiht
p2066
aVCocoa Tea
p2067
aVLuis Alberto Spinetta
p2068
aVMidlake
p2069
aVRuth Etting
p2070
aVYngwie Malmsteen
p2071
aVMundy
p2072
aVSpearhead
p2073
aVJulieta Venegas
p2074
aVGhost Machine
p2075
aVThe Eyeliners
p2076
aVPat Benatar
p2077
aVBaby Bash
p2078
aVEros Ramazzotti
p2079
aVThe String Cheese Incident
p2080
aVTiger Lillies
p2081
aVSantana
p2082
aVDamn Yankees
p2083
aVEdge Of Sanity
p2084
aVHellhammer
p2085
aVRick James
p2086
aVAna Torroja
p2087
aVLords Of The Underground
p2088
aVLunachicks
p2089
aVAudio Two
p2090
aVLeatherface
p2091
aVPaul Baloche
p2092
aVBratmobile
p2093
aVKate Bush
p2094
aVRaine Maida
p2095
aVAnna Maria Jopek
p2096
aVLeigh Nash
p2097
aVThe Briefs
p2098
aVRio Grande
p2099
aVOur Lady Peace
p2100
aVSniper
p2101
aVThe Beautiful South
p2102
aVShifty
p2103
aVThrowdown
p2104
aVJohnny Hates Jazz
p2105
aVNeil Diamond
p2106
aVThe Presets
p2107
aVDriving East
p2108
aVPentangle
p2109
aVAerosmith
p2110
aVBerlin
p2111
aVEddie Vedder
p2112
aVBroken Hope
p2113
aVDecoded Feedback
p2114
aVIkara Colt
p2115
aVColdcut
p2116
aVLes Innocents
p2117
aVMerche
p2118
aVRush Of Fools
p2119
aVEl Gran Silencio
p2120
aVFrom Zero
p2121
aVMonks Of Doom
p2122
aVUncle Earl
p2123
aVNatural
p2124
aVToots Thielemans
p2125
aVNight Ranger
p2126
aVChris Rea
p2127
aVAtheist
p2128
aVApache Indian
p2129
aVPoisonblack
p2130
aVPatti LaBelle
p2131
aVSid Vicious
p2132
aVChristina Aguilera
p2133
aVCamRon
p2134
aVAdam Watts
p2135
aVHouse Of Heroes
p2136
aVCalabrese
p2137
aVCristian Castro
p2138
aVUlrich Schnauss
p2139
aVKate Ryan
p2140
aVAngie Stone
p2141
aVMachine Head
p2142
aVSeven Mary Three
p2143
aVPlan B
p2144
aVKristin Chenoweth
p2145
aVBoards of Canada
p2146
aVCONTROL DENIED
p2147
aVBox Car Racer
p2148
aVSimple Minds
p2149
aVLarue
p2150
aVNew Buffalo
p2151
aVComptons Most Wanted
p2152
aVKane
p2153
aVEbony Eyez
p2154
aVTrailer Choir
p2155
aVPete Seeger
p2156
aVWayne Wonder
p2157
aVSilverchair
p2158
aVBurl Ives
p2159
aVR Kelly
p2160
aVCharlie Daniels
p2161
aVChenoa
p2162
aVNew Young Pony Club
p2163
aVPinback
p2164
aVGorkys Zygotic Mynci
p2165
aVHenson Cargill
p2166
aVDallas Holm
p2167
aVWe Came As Romans
p2168
aVKool Keith
p2169
aVCrazy Frog
p2170
aVOmnium Gatherum
p2171
aVFaith Evans
p2172
aVMario Vazquez
p2173
aVBilly Joel
p2174
aVNena
p2175
aVIan Brown
p2176
aVThe Supremes
p2177
aVKeri Noble
p2178
aVBruce Springsteen
p2179
aVMarques Houston
p2180
aVRobert Palmer
p2181
aVGirls in Hawaii
p2182
aVVanilla Sky
p2183
aVPaul Stanley
p2184
aVWillie Nelson
p2185
aVRiverside
p2186
aVMxPx
p2187
aVLene Marlin
p2188
aVKetama
p2189
aVWednesday 13
p2190
aVThe Breeders
p2191
aVPepper
p2192
aVSophie Milman
p2193
aVFleet Foxes
p2194
aVRufio
p2195
aVSon Volt
p2196
aVCharlie Rich
p2197
aVPencey Prep
p2198
aVCREMATORY
p2199
aVThe Flying Pickets
p2200
aVBarbra Streisand
p2201
aVKingdom Come
p2202
aVClyde McPhatter
p2203
aVAnna Nalick
p2204
aVMelanie
p2205
aVSamantha James
p2206
aVSaigon Kick
p2207
aVGang Starr
p2208
aVPaulina Rubio
p2209
aVThe Monkees
p2210
aVThe Raveonettes
p2211
aVLee Ryan
p2212
aVMates of State
p2213
aVVanessa Paradis
p2214
aVNeds Atomic Dustbin
p2215
aVHeather Headley
p2216
aVLos Lobos
p2217
aVMary MacGregor
p2218
aVHarpers Bizarre
p2219
aVKatie Melua
p2220
aVThe Gathering
p2221
aVBarry Manilow
p2222
aVRobyn Hitchcock
p2223
aVReady For The World
p2224
aVLords Of Acid
p2225
aVCrash Test Dummies
p2226
aVEmily Loizeau
p2227
aVIan Gillan
p2228
aVUnion 13
p2229
aVLong Beach Dub Allstars
p2230
aVOur Last Night
p2231
aVFaultline
p2232
aVMortal Love
p2233
aVDigable Planets
p2234
aVCitizen Cope
p2235
aVMarvelous 3
p2236
aVSanctus Real
p2237
aVMick Ronson
p2238
aVCash Cash
p2239
aVCeltic Woman
p2240
aVCandlebox
p2241
aVJackie Trent
p2242
aVExtreme Noise Terror
p2243
aVOnslaught
p2244
aVCraigs Brother
p2245
aVBring Me The Horizon
p2246
aVCorbin Bleu
p2247
aVConverge
p2248
aVGojira
p2249
aVImagination
p2250
aVSaiko
p2251
aVGareth Gates
p2252
aVPat Travers
p2253
aVEurythmics
p2254
aVBlake Lewis
p2255
aVRednex
p2256
aVGoldfinger
p2257
aVReagan Youth
p2258
aVMustafa Sandal
p2259
aVBilly Joe Royal
p2260
aVKingspade
p2261
aVToni Childs
p2262
aVVan Halen
p2263
aVGuided By Voices
p2264
aVAlvin Lee
p2265
aVGazebo
p2266
aVFrank Sinatra
p2267
aVPretty Maids
p2268
aVSierra
p2269
aVThe Suicide Machines
p2270
aVThe Osmonds
p2271
aVBiz Markie
p2272
aVBlind Pilot
p2273
aVValencia
p2274
aVMaster P
p2275
aVUnbelievable Truth
p2276
aVThe Whigs
p2277
aVOzma
p2278
aVSay Hi To Your Mom
p2279
aVSheryfa Luna
p2280
aVThe Knickerbockers
p2281
aVSam Brown
p2282
aVFreak Power
p2283
aVRiot
p2284
aVMaxi Priest
p2285
aVToday Is The Day
p2286
aVThe Jam
p2287
aVBrenda Lee
p2288
aVTokyo Police Club
p2289
aVCabas
p2290
aVWhitney Houston
p2291
aVThe Knack
p2292
aVAllure
p2293
aVPeter Bradley Adams
p2294
aVChris Sligh
p2295
aVJerzee Monet
p2296
aVJulio Iglesias
p2297
aVThe Crimea
p2298
aVNegrita
p2299
aVInto Eternity
p2300
aVMichel Fugain
p2301
aVBlood Has Been Shed
p2302
aVLisa Hannigan
p2303
aVIQ
p2304
aVAtomic Kitten
p2305
aVGene
p2306
aVFrank Turner
p2307
aVLisa Miskovsky
p2308
aVLucero
p2309
aVProject 86
p2310
aVBeverley Knight
p2311
aVPeeping Tom
p2312
aVLoose Ends
p2313
aVLinea 77
p2314
aVNerf Herder
p2315
aVAustrian Death Machine
p2316
aVPeter Frampton
p2317
aVCat Power
p2318
aVDon Williams
p2319
aVKaskade
p2320
aVThe Pietasters
p2321
aVArt Mengo
p2322
aVBaron Rojo
p2323
aVIvete Sangalo
p2324
aVPatti Smith
p2325
aVAtlas Sound
p2326
aVBullet For My Valentine
p2327
aVGod Dethroned
p2328
aVTarkan
p2329
aVUdo Lindenberg
p2330
aVBuddy Miles
p2331
aVBlack Kids
p2332
aVHAMMERFALL
p2333
aVHope Of The States
p2334
aVThomas Dutronc
p2335
aVWilly Mason
p2336
aVSteps
p2337
aVSkillet
p2338
aVBertine Zetlitz
p2339
aVEllen Foley
p2340
aVVictor Manuelle
p2341
aVEels
p2342
aVHazel
p2343
aVJohnny Horton
p2344
aVStefanie Heinzmann
p2345
aV120 Days
p2346
aVBow Wow
p2347
aVRichard Marx
p2348
aVbe your own PET
p2349
aVEric Hutchinson
p2350
aVAmebix
p2351
aVGrandmaster Flash
p2352
aVAlicia Keys
p2353
aVGilberto Gil
p2354
aVGrateful Dead
p2355
aVGODGORY
p2356
aVMichael Brecker
p2357
aVThe Fleetwoods
p2358
aVAmanda Marshall
p2359
aVTracy Lawrence
p2360
aVOmara Portuondo
p2361
aVChris Eaton
p2362
aVTrinere
p2363
aVWhere Angels Fall
p2364
aVGlenn Medeiros
p2365
aVApostle Of Hustle
p2366
aVLuther Vandross
p2367
aVThen Jerico
p2368
aVChris Garneau
p2369
aVEvereve
p2370
aVRay J
p2371
aVLizzy Borden
p2372
aVLaura Fygi
p2373
aVDear Reader
p2374
aVREO Speedwagon
p2375
aVOlive
p2376
aVMae
p2377
aVThe Letter Black
p2378
aVKoop
p2379
aVThe Bonzo Dog Band
p2380
aVFionn Regan
p2381
aVThe Backyardigans
p2382
aVJim Noir
p2383
aVChalk Farm
p2384
aVShaggy
p2385
aVOtis Redding
p2386
aVAna Carolina
p2387
aVEleanor McEvoy
p2388
aVSpandau Ballet
p2389
aVStimulator
p2390
aVThug Life
p2391
aVDelbert McClinton
p2392
aVThis Mortal Coil
p2393
aVEver Stays Red
p2394
aVEstopa
p2395
aVMiranda Lee Richards
p2396
aVShane Nicholson
p2397
aVAz Yet
p2398
aVCelldweller
p2399
aVPennywise
p2400
aVSherwood
p2401
aVBaltimora
p2402
aVGianmaria Testa
p2403
aVShriekback
p2404
aVMorbid Angel
p2405
aVEast 17
p2406
aVKendall Payne
p2407
aVGrammatrain
p2408
aVRachael Yamagata
p2409
aVXavier Naidoo
p2410
aVThe Earlies
p2411
aVFredrika Stahl
p2412
aVAgainst All Authority
p2413
aVArtillery
p2414
aVMercy Fall
p2415
aVMatthew Sweet
p2416
aVEPMD
p2417
aVCorvus Corax
p2418
aVKALIMBA
p2419
aVDecapitated
p2420
aVThe Black Crowes
p2421
aVEddy Grant
p2422
aVTora Tora
p2423
aVUncle Tupelo
p2424
aVMotor Ace
p2425
aVThe Byrds
p2426
aVThe Donnas
p2427
aVAgnostic Front
p2428
aVLil Wayne
p2429
aVAnekdoten
p2430
aVGWAR
p2431
aVDavid Guetta
p2432
aVNek
p2433
aVGloria Estefan
p2434
aVThe Tossers
p2435
aVFred Neil
p2436
aVThe Eames Era
p2437
aVPeggy Lee
p2438
aVForeigner
p2439
aVDelinquent Habits
p2440
aVMalcolm McLaren
p2441
aVThe Sword
p2442
aVYoung Heart Attack
p2443
aVRhymefest
p2444
aVPiers Faccini
p2445
aVJohnny Tillotson
p2446
aVAlberto Plaza
p2447
aVSoda Stereo
p2448
aVHem
p2449
aVSloan
p2450
aVOurs
p2451
aVChris Cornell
p2452
aVAdie
p2453
aVJohn Sebastian
p2454
aVBo Bice
p2455
aVYoung MC
p2456
aVLos Planetas
p2457
aVWilliam Orbit
p2458
aVNOFX
p2459
aVIan Van Dahl
p2460
aVNorman Hutchins
p2461
aVAsking Alexandria
p2462
aVThe Lyndsay Diaries
p2463
aVEspers
p2464
aVThompson Twins
p2465
aVMew
p2466
aVRaised Fist
p2467
aVDaniel Johnston
p2468
aVNo Doubt
p2469
aVAlexisonfire
p2470
aVSoul Coughing
p2471
aVFeargal Sharkey
p2472
aVThe Tea Party
p2473
aVExtreme
p2474
aVNocturnus
p2475
aVVivian Green
p2476
aVJill Sobule
p2477
aVHeideroosjes
p2478
aVEvery Time I Die
p2479
aVKenny G
p2480
aVThee More Shallows
p2481
aVManic Street Preachers
p2482
aVFaithless
p2483
aVBenjy Ferree
p2484
aVFefe Dobson
p2485
aVUmbra et Imago
p2486
aVCarlos Gardel
p2487
aVNew End Original
p2488
aVDestinys Child
p2489
aVBlack 47
p2490
aVDeath From Above 1979
p2491
aVDionysus
p2492
aVLisa Mitchell
p2493
aVVanilla Fudge
p2494
aVKrokus
p2495
aVDas EFX
p2496
aVBobby Brown
p2497
aVAndrew Lloyd Webber
p2498
aVSouls Of Mischief
p2499
aVFantastic Plastic Machine
p2500
aVOrange Juice
p2501
aVMatisyahu
p2502
aVLali Puna
p2503
aVAphex Twin
p2504
aVAmy Millan
p2505
aVAs I Lay Dying
p2506
aVGlass Candy
p2507
aVShakira
p2508
aVLarry Norman
p2509
aVCarnival in Coal
p2510
aVHank Thompson
p2511
aVMinus The Bear
p2512
aVRich Boy
p2513
aVCivil Twilight
p2514
aVCrystal Castles
p2515
aVElvis Costello
p2516
aVNeri Per Caso
p2517
aVWalls Of Jericho
p2518
aVRigheira
p2519
aVAdrian Belew
p2520
aVRedman
p2521
aVFrom First to Last
p2522
aVFree Kitten
p2523
aVArticolo 31
p2524
aVCharlotte Perrelli
p2525
aVDarkthrone
p2526
aVPoco
p2527
aVNewsong
p2528
aVCry Cry Cry
p2529
aVSaxon
p2530
aVUriah Heep
p2531
aVPaul Simon
p2532
aVEdge Of Dawn
p2533
aVFinley
p2534
aVMSTRKRFT
p2535
aVMU330
p2536
aVThe Cult
p2537
aVExodus
p2538
aVWeen
p2539
aVRilo Kiley
p2540
aVLucy Pearl
p2541
aVVaux
p2542
aVThe Berzerker
p2543
aVFear Factory
p2544
aVBuck Owens
p2545
aVBob Carlisle
p2546
aVPatricia Barber
p2547
aVRay Charles
p2548
aVWaking Ashland
p2549
aVDeviates
p2550
aVKaren Matheson
p2551
aVInformation Society
p2552
aVMorningwood
p2553
aVWaylon Jennings
p2554
aVMagic Affair
p2555
aVBen Harper
p2556
aV2Pac
p2557
aVBell X1
p2558
aVBombay Bicycle Club
p2559
aVStevie Ray Vaughan
p2560
aVMarduk
p2561
aVDavid Ford
p2562
aVOk Go
p2563
aVCappadonna
p2564
aVBlack Sheep
p2565
aVLOFOFORA
p2566
aVDan Fogelberg
p2567
aVWarlock
p2568
aVLucky 7
p2569
aVChris De Burgh
p2570
aVThe Magic Numbers
p2571
aVMaria McKee
p2572
aVDestroy The Runner
p2573
aVOverseer
p2574
aVElf Power
p2575
aVStream Of Passion
p2576
aVThe Pogues
p2577
aVLone Justice
p2578
aVDimmu Borgir
p2579
aVCactus
p2580
aVThe Brand New Heavies
p2581
aVJuliana Hatfield
p2582
aVBen Jelen
p2583
aVCasting Crowns
p2584
aVAxel Rudi Pell
p2585
aVLeningrad Cowboys
p2586
aVKate Rusby
p2587
aVCry Of Love
p2588
aVThe Drifters
p2589
aVNNENNA FREELON
p2590
aVHUM
p2591
aVWilliam Fitzsimmons
p2592
aVDon Moen
p2593
aVKiss Kiss
p2594
aVBill Monroe
p2595
aVCrystal Waters
p2596
aVLil Rob
p2597
aVAshton Shepherd
p2598
aVThe Velvet Underground
p2599
aVHead Automatica
p2600
aVRazah
p2601
aVBen Kweller
p2602
aVEmigrate
p2603
aVAlyson Williams
p2604
aVThe Verve Pipe
p2605
aVAt All Cost
p2606
aVMurderdolls
p2607
aVGlasseater
p2608
aVHellogoodbye
p2609
aVSmoking Popes
p2610
aVLouise
p2611
aVCoalesce
p2612
aVFoghat
p2613
aVDelays
p2614
aVHelen Reddy
p2615
aVThursday
p2616
aVSoulfly
p2617
aVCamille
p2618
aVCarolyn Dawn Johnson
p2619
aVBurton Cummings
p2620
aVVanessa Da Mata
p2621
aVArt Garfunkel
p2622
aVPupo
p2623
aVThe Silencers
p2624
aVOingo Boingo
p2625
aVErics Trip
p2626
aVThe View
p2627
aVOffer Nissim
p2628
aVDemians
p2629
aVBoyzone
p2630
aVIbrahim Ferrer
p2631
aVMonica
p2632
aVNorthern Picture Library
p2633
aVDUNCAN SHEIK
p2634
aVGreg Graffin
p2635
aVCarcass
p2636
aVLiquido
p2637
aVIllapu
p2638
aVDaniel Lanois
p2639
aVGrand National
p2640
aVEternal
p2641
aVEdgar Winter
p2642
aVBlake Shelton
p2643
aVGlassjaw
p2644
aVMatthew Good
p2645
aVFor Squirrels
p2646
aVJerry Rivera
p2647
aVPatrick Wolf
p2648
aVGretchen Wilson
p2649
aVAnis
p2650
aVOrange Goblin
p2651
aVStephen Bishop
p2652
aVKerbdog
p2653
aVDeftones
p2654
aVTodos Tus Muertos
p2655
aVDiego Torres
p2656
aVMarie Lindberg
p2657
aVTiziano Ferro
p2658
aVThe Nashville Bluegrass Band
p2659
aVLa Lupita
p2660
aVQueens Of The Stone Age
p2661
aVYouth Group
p2662
aVStreet Sweeper Social Club
p2663
aVMonsters Of Folk
p2664
aVKeith Whitley
p2665
aVShakespears Sister
p2666
aVSaving Abel
p2667
aVBill Conti
p2668
aVThe Detroit Cobras
p2669
aVAdam Sandler
p2670
aVMazzy Star
p2671
aVThe Pierces
p2672
aVCoheed and Cambria
p2673
aVTransplants
p2674
aVKasey Chambers
p2675
aVThe Seeds
p2676
aVOzzy Osbourne
p2677
aVFancy
p2678
aVAndy Williams
p2679
aVThelma Houston
p2680
aVPFR
p2681
aVLeeland
p2682
aVDie Prinzen
p2683
aVGipsy Kings
p2684
aVBilly Gilman
p2685
aVUltramagnetic MCs
p2686
aVPnau
p2687
aVGratitude
p2688
aVCommodores
p2689
aVMichael Bolton
p2690
aVKotipelto
p2691
aVToto
p2692
aVKristine W
p2693
aVThe Power Station
p2694
aVTim Buckley
p2695
aVBret Michaels
p2696
aVJonathan Coulton
p2697
aVThe Rembrandts
p2698
aVSarah Kelly
p2699
aVLa Pestilencia
p2700
aVVelvet
p2701
aVAlex Lloyd
p2702
aVBig Country
p2703
aVPorcupine Tree
p2704
aVJohn Wesley
p2705
aVGerald Albright
p2706
aVFrankie Valli
p2707
aVThe Aloof
p2708
aVNelly
p2709
aVThe Trews
p2710
aVMcFly
p2711
aVCalifone
p2712
aVThe Verve
p2713
aVShawn McDonald
p2714
aVThe Pastels
p2715
aVThe Crystals
p2716
aVFact
p2717
aVClannad
p2718
aVLil Kim
p2719
aVTarrus Riley
p2720
aVAgent Orange
p2721
aVFirewind
p2722
aVRODNEY CROWELL
p2723
aVDAngelo
p2724
aVTokyo Rose
p2725
aVClarence Carter
p2726
aVJulee Cruise
p2727
aVCadence Weapon
p2728
aVThe Reindeer Section
p2729
aVKristy Lee Cook
p2730
aVDiams
p2731
aVStiv Bators
p2732
aVChokebore
p2733
aVSINISTER
p2734
aVMartha Wainwright
p2735
aVSoho
p2736
aVUsurp Synapse
p2737
aVSense Field
p2738
aVEvery Avenue
p2739
aVIt Bites
p2740
aVKatatonia
p2741
aVYing Yang Twins
p2742
aVVirgin Prunes
p2743
aVRammstein
p2744
aVMiss Kittin
p2745
aVPeter Hammill
p2746
aVChris Farlowe
p2747
aVXYZ
p2748
aVBarbara Acklin
p2749
aVMatt Wertz
p2750
aVUltraspank
p2751
aVAlkaline Trio
p2752
aVGogol Bordello
p2753
aVMoya Brennan
p2754
aVFightstar
p2755
aVCommander Venus
p2756
aVDag Nasty
p2757
aVTiffany Evans
p2758
aVTyler Hilton
p2759
aVReverend And The Makers
p2760
aVUFO
p2761
aVFaker
p2762
aVTalking Heads
p2763
aVPete Murray
p2764
aVUrge Overkill
p2765
aVGood Charlotte
p2766
aVTrisha Yearwood
p2767
aVRevolverheld
p2768
aVJoe Walsh
p2769
aVArchers Of Loaf
p2770
aVAtlantic Starr
p2771
aVDeBarge
p2772
aVFirst Blood
p2773
aVThe Geraldine Fibbers
p2774
aVChikita Violenta
p2775
aVArt In Manila
p2776
aVGigolo Aunts
p2777
aVAyria
p2778
aVThe Colour
p2779
aVPortugal The Man
p2780
aVCarolina Liar
p2781
aVThrice
p2782
aVAFI
p2783
aVFugees
p2784
aVIma Robot
p2785
aVSelig
p2786
aVDerek Webb
p2787
aVDemis Roussos
p2788
aVNorther
p2789
aVThe Panic Channel
p2790
aVYeah Yeah Yeahs
p2791
aVDescendents
p2792
aVDario G
p2793
aVDead Disco
p2794
aVAtari Teenage Riot
p2795
aVGolden Earring
p2796
aVMuch The Same
p2797
aVThe Pigeon Detectives
p2798
aVBrooke White
p2799
aVEnigma
p2800
aVBaaba Maal
p2801
aVSupergrass
p2802
aVLimp Bizkit
p2803
aVXmal Deutschland
p2804
aVZZ Top
p2805
aVAutopsy
p2806
aVTruth Hurts
p2807
aVBilly Dean
p2808
aVGuy Lombardo
p2809
aVMoenia
p2810
aVRush
p2811
aVThe Lemonheads
p2812
aVNekromantix
p2813
aVMissy Elliott
p2814
aVAlbert Collins
p2815
aVThe Appleseed Cast
p2816
aVHoward Jones
p2817
aVSylvester
p2818
aVThe Turtles
p2819
aVGood Riddance
p2820
aVMike Doughty
p2821
aVWayne Brady
p2822
aVBattle
p2823
aVThe Auteurs
p2824
aVBrand Nubian
p2825
aVSuede
p2826
aVThe Moldy Peaches
p2827
aVEdgewater
p2828
aVSick Puppies
p2829
aVMaria
p2830
aVWeezer
p2831
aVPulp
p2832
aVBabyface
p2833
aVJonny Lang
p2834
aVLord Belial
p2835
aVRobbie Dupree
p2836
aVCowboy Mouth
p2837
aVFaudel
p2838
aVResorte
p2839
aVThievery Corporation
p2840
aVDragpipe
p2841
aVBrian Vander Ark
p2842
aVJota Quest
p2843
aVErnest Tubb
p2844
aVAna Gabriel
p2845
aVWorlds Apart
p2846
aVArabesque
p2847
aVKelly Willis
p2848
aVLost Dogs
p2849
aVDream Theater
p2850
aVThe Red Jumpsuit Apparatus
p2851
aVYung Berg
p2852
aVBilly Sheehan
p2853
aVAsia
p2854
aVHothouse Flowers
p2855
aVAsian Dub Foundation
p2856
aVOld Mans Child
p2857
aVLynden David Hall
p2858
aVZAO
p2859
aVImperanon
p2860
aVBritish Sea Power
p2861
aVPaula DeAnda
p2862
aVMission Of Burma
p2863
aVJohnny Winter
p2864
aVPhilmore
p2865
aVCity Sleeps
p2866
aVDAN SEALS
p2867
aVMax Herre
p2868
aVBen Taylor
p2869
aVBeth Nielsen Chapman
p2870
aVBaroness
p2871
aVLiege Lord
p2872
aVThe Moffatts
p2873
aVCat Stevens
p2874
aVAxxis
p2875
aVKool Savas
p2876
aVJa Rule
p2877
aVThe Kooks
p2878
aVLabyrinth
p2879
aVSOiL
p2880
aVLFO
p2881
aVHot Water Music
p2882
aVDexys Midnight Runners
p2883
aVMount Sims
p2884
aVDanielle Brisebois
p2885
aVDon Tetto
p2886
aVThe Simpsons
p2887
aVThe Yardbirds
p2888
aVHotwire
p2889
aVTom Cochrane
p2890
aVWyclef Jean
p2891
aVAlison Krauss
p2892
aVLes Rita Mitsouko
p2893
aVMichael Nesmith
p2894
aVChina Drum
p2895
aVJunkie XL
p2896
aVLeila Pinheiro
p2897
aVOf Montreal
p2898
aVRedemption
p2899
aVEisley
p2900
aVHot Chip
p2901
aVScar Symmetry
p2902
aVShania Twain
p2903
aVMoments In Grace
p2904
aVThe Smiths
p2905
aVCarlene Carter
p2906
aVBorn From Pain
p2907
aVBijelo Dugme
p2908
aVAdam Green
p2909
aVNew York Dolls
p2910
aVNneka
p2911
aVSmut Peddlers
p2912
aVLOCK UP
p2913
aVOleta Adams
p2914
aVKATAKLYSM
p2915
aVStan Ridgway
p2916
aVPath Of Resistance
p2917
aVThe Starting Line
p2918
aVMartin Sexton
p2919
aVMarvin Gaye
p2920
aVThe Doobie Brothers
p2921
aVDarius Rucker
p2922
aVErin Bode
p2923
aVBrutal Truth
p2924
aVPatrick Watson
p2925
aVOzomatli
p2926
aVTiffany
p2927
aVFozzy
p2928
aVMink DeVille
p2929
aVCarly Simon
p2930
aVDalida
p2931
aVThe Stylistics
p2932
aVLa Dispute
p2933
aVTarmac
p2934
aVBuddy Holly
p2935
aVMissing Persons
p2936
aVBad Company
p2937
aVPride Of Lions
p2938
aVHoneymoon Suite
p2939
aVGirlschool
p2940
aVRoger Hodgson
p2941
aVLate Night Alumni
p2942
aVMYSTIC PROPHECY
p2943
aVKing Diamond
p2944
aVNitty Gritty Dirt Band
p2945
aVThe Flirts
p2946
aVSmash Mouth
p2947
aVThom Yorke
p2948
aVColdplay
p2949
aVHis Name Is Alive
p2950
aVJackson Browne
p2951
aVTyrone Wells
p2952
aVBonnie Tyler
p2953
aVEmiliana Torrini
p2954
aVDrake
p2955
aVKurupt
p2956
aVMouse On Mars
p2957
aVThe Datsuns
p2958
aVParliament
p2959
aVKeith Sweat
p2960
aVBillie Ray Martin
p2961
aVSnog
p2962
aVPeter Bjorn And John
p2963
aVHanne Hukkelberg
p2964
aVMadcon
p2965
aVThe Like
p2966
aVBlack Uhuru
p2967
aVThe Vapors
p2968
aVDorian
p2969
aVThe Get Up Kids
p2970
aVRonnie Dove
p2971
aVThe Dears
p2972
aVCowboy Junkies
p2973
aVLauryn Hill
p2974
aVSKYCLAD
p2975
aVNessbeal
p2976
aVSleeping With Sirens
p2977
aVLatif
p2978
aVCallenish Circle
p2979
aVTelevision
p2980
aVXIU XIU
p2981
aVNo Te Va Gustar
p2982
aVBratz
p2983
aVBBMak
p2984
aVPlastiscines
p2985
aVRoom Eleven
p2986
aVElliott Smith
p2987
aVErick Sermon
p2988
aVDeath By Stereo
p2989
aVGabriela Anders
p2990
aVChico Buarque
p2991
aVFat Joe
p2992
aVDie Toten Hosen
p2993
aVPeabo Bryson
p2994
aVDavid Gray
p2995
aVPurple Hearts
p2996
aVWayne Newton
p2997
aVArmy Of Lovers
p2998
aVHeather Nova
p2999
aVSeventh Day Slumber
p3000
aVSonicflood
p3001
aVLucinda Williams
p3002
aVSweet
p3003
aVThe Partridge Family
p3004
aVAlesana
p3005
aVUman
p3006
aVLittle River Band
p3007
aVPJ Harvey
p3008
aVPretty Girls Make Graves
p3009
aVWINTERSUN
p3010
aVSeal
p3011
aVGene Loves Jezebel
p3012
aVRock Kills Kid
p3013
aVFangoria
p3014
aVExile
p3015
aVWalter Becker
p3016
aVAkercocke
p3017
aVSerena Ryder
p3018
aVNatalie Imbruglia
p3019
aVShades Of Blue
p3020
aVSage Francis
p3021
aVWang Chung
p3022
aVJFA
p3023
aVGeddy Lee
p3024
aVAqualung
p3025
aVWalter Beasley
p3026
aVOlodum
p3027
aVThea Gilmore
p3028
aVMarc Lavoine
p3029
aVKillswitch Engage
p3030
aVGreat Northern
p3031
aVSUPREME BEINGS OF LEISURE
p3032
aVKathy Mattea
p3033
aVOkkervil River
p3034
aVThe Whispers
p3035
aVPatrizio Buanne
p3036
aVJason Mraz
p3037
aVThe Atomic Fireballs
p3038
aVStiff Little Fingers
p3039
aVVirgin Black
p3040
aVFM Static
p3041
aVKlee
p3042
aVFour Letter Lie
p3043
aVJimmy Hughes
p3044
aVEnya
p3045
aVCharlotte Church
p3046
aVDolorean
p3047
aVTransatlantic
p3048
aVKeb Mo
p3049
aVTaylor Dayne
p3050
aVJosh Groban
p3051
aVOne Night Only
p3052
aVJude Cole
p3053
aVMarcus Miller
p3054
aVThe Libertines
p3055
aVThe Cheetah Girls
p3056
aVWar Of Ages
p3057
aVWinans Phase 2
p3058
aVBreaking Benjamin
p3059
aVFerras
p3060
aVSlick Rick
p3061
aVDreamtale
p3062
aVSergent Garcia
p3063
aVBap
p3064
aVGrim Reaper
p3065
aVThe Everly Brothers
p3066
aVPriscilla Renea
p3067
aVSavatage
p3068
aVAra Ketu
p3069
aVCracker
p3070
aVGene Watson
p3071
aVPeople In Planes
p3072
aVDoctor Butcher
p3073
aVNolwenn Leroy
p3074
aVThe Black Keys
p3075
aVEli Young Band
p3076
aVEra
p3077
aVRitchie Valens
p3078
aVSimon Webbe
p3079
aVMatt Bianco
p3080
aVDanny Elfman
p3081
aVVictor Jara
p3082
aVSkid Row
p3083
aVMia X
p3084
aVIncognito
p3085
aVGin Blossoms
p3086
aVIron Maiden
p3087
aVEric Burdon
p3088
aVThe Bluetones
p3089
aVSergio Dalma
p3090
aVJustin Guarini
p3091
aVDavid Byrne
p3092
aVThe Pink Spiders
p3093
aVBanda Eva
p3094
aVJadakiss
p3095
aVAmbrosia
p3096
aVIsaac Hayes
p3097
aVSilverstein
p3098
aVEaston Corbin
p3099
aVGyllene Tider
p3100
aVJimmy Buffett
p3101
aVThrow Me The Statue
p3102
aVFreda Payne
p3103
aVJohnny Foreigner
p3104
aVSara Bareilles
p3105
aVPlies
p3106
aVRich Mullins
p3107
aVAshley MacIsaac
p3108
aVMartine McCutcheon
p3109
aVKip Winger
p3110
aVPeter Cetera
p3111
aVJoan Baez
p3112
aVGriffin House
p3113
aVThe White Stripes
p3114
aVDokken
p3115
aVIce Mc
p3116
aVMud
p3117
aVDash Berlin
p3118
aVThe Raspberries
p3119
aVAnberlin
p3120
aVTracey Ullman
p3121
aVThe Blind Boys Of Alabama
p3122
aVKim Stockwood
p3123
aVBlack Flag
p3124
aVPhosphorescent
p3125
aVDan Mangan
p3126
aVCaedmons Call
p3127
aVLisa Loeb
p3128
aVFinn Brothers
p3129
aVFlaw
p3130
aVThe Bongos
p3131
aVSpektrum
p3132
aVThe Cadillacs
p3133
aVDoris Day
p3134
aVDion
p3135
aVKirk Franklin
p3136
aVJimmy Barnes
p3137
aVKeKe Wyatt
p3138
aVJulian Cope
p3139
aVWarren Zevon
p3140
aVSlim Harpo
p3141
aVBlonde Redhead
p3142
aVJuan Fernando Velasco
p3143
aVSioen
p3144
aVJack Bruce
p3145
aVOne Shot
p3146
aVBrother Ali
p3147
aVThe Panic Division
p3148
aVSneaker Pimps
p3149
aVBlaze Ya Dead Homie
p3150
aVEllie Goulding
p3151
aVBosse
p3152
aVLoleatta Holloway
p3153
aVFFH
p3154
aVElmore James
p3155
aVJupiter Rising
p3156
aVCherry Poppin Daddies
p3157
aVMiss Li
p3158
aVThe Black Dahlia Murder
p3159
aVSteve Wariner
p3160
aVLeon Jackson
p3161
aVFlipper
p3162
aVUnk
p3163
aVYukmouth
p3164
aVHuffamoose
p3165
aVCross Movement
p3166
aVCharlie Robison
p3167
aVBruce Dickinson
p3168
aVWilliam Shatner
p3169
aVSyreeta
p3170
aVFrankie J
p3171
aVTwo Gallants
p3172
aVBoston
p3173
aVIyaz
p3174
aVO Rappa
p3175
aVTurbonegro
p3176
aVPaul Hardcastle
p3177
aVStone Temple Pilots
p3178
aVJukebox The Ghost
p3179
aVChevelle
p3180
aVBowerbirds
p3181
aVYoungBloodZ
p3182
aVJackie Greene
p3183
aVThe Creatures
p3184
aVPitbull Daycare
p3185
aVThe Mike Flowers Pops
p3186
aVHeaven Shall Burn
p3187
aVMenomena
p3188
aVGirls Aloud
p3189
aVZazie
p3190
aVNew Grass Revival
p3191
aVBolt Thrower
p3192
aVDavid Cook
p3193
aVAllan Sherman
p3194
aVToni Braxton
p3195
aVNodes Of Ranvier
p3196
aVAl Stewart
p3197
aVMISERY INDEX
p3198
aVMaps
p3199
aVThe Killers
p3200
aVElvenking
p3201
aVCommon Rider
p3202
aVLets Go Sailing
p3203
aVBryan Ferry
p3204
aVStir
p3205
aVGenesis
p3206
aVScars On Broadway
p3207
aVJohn Prine
p3208
aVSeth Lakeman
p3209
aVHolly Williams
p3210
aVFrancesco De Gregori
p3211
aVWillie Dixon
p3212
aVMaterial Issue
p3213
aVMinnie Riperton
p3214
aVChiodos
p3215
aVThe Shore
p3216
aVKs Choice
p3217
aVHey Monday
p3218
aVMichelle Tumes
p3219
aVIt Dies Today
p3220
aVMesh
p3221
aVCarnifex
p3222
aVSonny James
p3223
aVBubba Sparxxx
p3224
aVQuietdrive
p3225
aVMinnie Driver
p3226
aVRichard Hawley
p3227
aVAlphabeat
p3228
aVThe Gufs
p3229
aVGraham Coxon
p3230
aVJerry Reed
p3231
aVSamael
p3232
aVMolotov
p3233
aVNana Mouskouri
p3234
aVNeva Dinova
p3235
aVRancid
p3236
aVSlayer
p3237
aVPhil Ochs
p3238
aVThe Almost
p3239
aVRickie Lee Jones
p3240
aVAlabama 3
p3241
aVThe Loved Ones
p3242
aVAlan Jackson
p3243
aVNevermore
p3244
aVThe Kinks
p3245
aVBianca Ryan
p3246
aVClipse
p3247
aVdEUS
p3248
aVRIDDLIN KIDS
p3249
aVMadrugada
p3250
aVFun Lovin Criminals
p3251
aVGHINZU
p3252
aVCarpark North
p3253
aVLes Nubians
p3254
aVFine Young Cannibals
p3255
aVStory Of The Year
p3256
aVBicycle Thief
p3257
aVSpooky Tooth
p3258
aVBlossom Dearie
p3259
aVLouise Attaque
p3260
aVCrazy Town
p3261
aVEarthsuit
p3262
aVHot Club De Paris
p3263
aVDark Tranquillity
p3264
aVThe Animals
p3265
aVAtomic Rooster
p3266
aVThe Outfield
p3267
aVElisa
p3268
aVAne Brun
p3269
aVThe Cinematic Orchestra
p3270
aVRhett Akins
p3271
aVBarry Adamson
p3272
aVGluecifer
p3273
aVKaoma
p3274
aVBlues Traveler
p3275
aVArcade Fire
p3276
aVSingle Gun Theory
p3277
aVLou Rhodes
p3278
aVCriteria
p3279
aVThe Flys
p3280
aVLily Allen
p3281
aVMobb Deep
p3282
aVVan Zant
p3283
aVForever The Sickest Kids
p3284
aVBritt Nicole
p3285
aVThe Living End
p3286
aVBernadette Peters
p3287
aVSebadoh
p3288
aVBloodhound Gang
p3289
aVSoraya
p3290
aVIvy
p3291
aVMark Kozelek
p3292
aVAlex Britti
p3293
aVChris Bell
p3294
aVLongwave
p3295
aVLondonbeat
p3296
aVKix
p3297
aVChicane
p3298
aVSalvador
p3299
aVWe Are Scientists
p3300
aVSmalltown Poets
p3301
aVBomfunk MCs
p3302
aVYo La Tengo
p3303
aVAmber
p3304
aVCarlos Baute
p3305
aVAlamo Race Track
p3306
aVRaul Seixas
p3307
aVSwitchblade Symphony
p3308
aVPink Martini
p3309
aVSarah Blasko
p3310
aVFabiana Cantilo
p3311
aVMark Knopfler
p3312
aVHorrorPops
p3313
aVLynch Mob
p3314
aVCrash Romeo
p3315
aVLucybell
p3316
aVToy Matinee
p3317
aVEdwin Hawkins
p3318
aVYoung Jeezy
p3319
aVThe Pernice Brothers
p3320
aVThe Ataris
p3321
aVM
p3322
aVPaul Oakenfold
p3323
aVMagnet
p3324
aVBody Count
p3325
aVCommon
p3326
aVBT
p3327
aVShop Boyz
p3328
aVTracy Chapman
p3329
aVFront Line Assembly
p3330
aVThe Most Serene Republic
p3331
aVRBD
p3332
aVVision of Disorder
p3333
aVAlpinestars
p3334
aVEric Clapton
p3335
aVSecond Coming
p3336
aVToby Keith
p3337
aVFreddie King
p3338
aVThe Redwalls
p3339
aVAlicia Bridges
p3340
aVClout
p3341
aVJill Phillips
p3342
aVThe Carter Family
p3343
aVMotionless in White
p3344
aVBlutengel
p3345
aVSTEVE TAYLOR
p3346
aVNoiseworks
p3347
aVBon Jovi
p3348
aVTino Casal
p3349
aVGodhead
p3350
aVDoobie Brothers
p3351
aVPerry Como
p3352
aVGabrielle
p3353
aVMorbo
p3354
aVFra Lippo Lippi
p3355
aV3LW
p3356
aVGod Forbid
p3357
aVLindisfarne
p3358
aVAndy Yorke
p3359
aVFinntroll
p3360
aVGroove Coverage
p3361
aVChanging Faces
p3362
aVRadney Foster
p3363
aVFiona Apple
p3364
aVJS
p3365
aVMarianne Faithfull
p3366
aVGondwana
p3367
aVLemon Jelly
p3368
aVBen Folds
p3369
aVIron Butterfly
p3370
aVFlipsyde
p3371
aVDina Carroll
p3372
aVAlexkid
p3373
aVDisciple
p3374
aVMississippi Fred McDowell
p3375
aVPlanxty
p3376
aVCreedence Clearwater Revival
p3377
aVAngeles del Infierno
p3378
aVMisery Signals
p3379
aVThe Nixons
p3380
aVMa Rainey
p3381
aVJakalope
p3382
aVFamily Force 5
p3383
aVCaetano Veloso
p3384
aV3 Inches Of Blood
p3385
aVAztec Camera
p3386
aVBebe Winans
p3387
aVANJA GARBAREK
p3388
aVThe Nashville Teens
p3389
aVTraffic
p3390
aVPieces Of A Dream
p3391
aVStarship
p3392
aVMidnight Star
p3393
aVLucie Silvas
p3394
aVRidan
p3395
aVAmanda Lear
p3396
aVAntonio Orozco
p3397
aVThe Smithereens
p3398
aVRivers Cuomo
p3399
aVDuffy
p3400
aVRosenstolz
p3401
aVSkye Sweetnam
p3402
aVOutKast
p3403
aVEsthero
p3404
aVAnouk
p3405
aVKaddisfly
p3406
aVIndigo Girls
p3407
aVHot Chocolate
p3408
aVCamper Van Beethoven
p3409
aVBig L
p3410
aVTony Christie
p3411
aVALL SHALL PERISH
p3412
aVUrban Knights
p3413
aVBob Welch
p3414
aVAllison Moorer
p3415
aVThe Strokes
p3416
aVGoombay Dance Band
p3417
aVBleeding Through
p3418
aVGavin Rossdale
p3419
aVKrystal Meyers
p3420
aVAsleep At The Wheel
p3421
aVNew Kids On The Block
p3422
aVRory Gallagher
p3423
aVDaddy Yankee
p3424
aVJuan Carlos Baglietto
p3425
aVPastora Soler
p3426
aVRoxette
p3427
aVJulien Clerc
p3428
aVRadiohead
p3429
aVTom Petty
p3430
aVKathleen Edwards
p3431
aVKasabian
p3432
aVUnearth
p3433
aVPropaganda
p3434
aVDEATH
p3435
aVGhoti Hook
p3436
aVJuice Newton
p3437
aVNeon Blonde
p3438
aVMorcheeba
p3439
aVCara Dillon
p3440
aVBrendan Benson
p3441
aV311
p3442
aVDJ Quik
p3443
aVMary Gauthier
p3444
aVThe Grapes Of Wrath
p3445
aVKatie Armiger
p3446
aVVenom
p3447
aVNorman Brown
p3448
aVLaura Branigan
p3449
aVPlaya
p3450
aVWestlife
p3451
aVNine Days
p3452
aVRick Springfield
p3453
aVRupert Holmes
p3454
aVSecondhand Serenade
p3455
aVLisa Brokop
p3456
aVSoul II Soul
p3457
aVGallows
p3458
aVJulian Marley
p3459
aVVicentico
p3460
aVBeth Rowley
p3461
aVLove Equals Death
p3462
aVDiana Krall
p3463
aVSandrine
p3464
aVLadytron
p3465
aVSomething Happens
p3466
aVTracey Thorn
p3467
aVFeist
p3468
aVPrincess Superstar
p3469
aVLulu Santos
p3470
aVWill Young
p3471
aVOpen Hand
p3472
aVWilly Porter
p3473
aVSenses Fail
p3474
aVCarman
p3475
aVEartha Kitt
p3476
aVShawn Mullins
p3477
aVArtist Vs Poet
p3478
aVObk
p3479
aVIdlewild
p3480
aVMother Mother
p3481
aVCassius
p3482
aVThe Knife
p3483
aVCosmic Gate
p3484
aVRon Kenoly
p3485
aVEulogies
p3486
aVVitamin C
p3487
aVMogwai
p3488
aVOlivia Ruiz
p3489
aVBrian May
p3490
aVAnnie
p3491
aVTommy Lee
p3492
aVBrian McKnight
p3493
aVThe Blue Nile
p3494
aVVector Lovers
p3495
aVDC Talk
p3496
aVDonny Hathaway
p3497
aVEdenbridge
p3498
aVFlobots
p3499
aVJoan As Police Woman
p3500
aVThe Only Ones
p3501
aVKandi
p3502
aVBobby Pulido
p3503
aVMorrissey
p3504
aVFish
p3505
aVMax Tundra
p3506
aVAntonello Venditti
p3507
aVMicah Stampley
p3508
aVPetey Pablo
p3509
aVSomething Corporate
p3510
aVCon Funk Shun
p3511
aVHe Is Legend
p3512
aVThe Distillers
p3513
aVKitchens Of Distinction
p3514
aVGreat Big Sea
p3515
aVYes
p3516
aVLouis Armstrong
p3517
aVKraftwerk
p3518
aVDaphne Loves Derby
p3519
aVLesley Gore
p3520
aVNeil Young
p3521
aVGreen River Ordinance
p3522
aVWaldeck
p3523
aVMikel Erentxun
p3524
aVNaughty By Nature
p3525
aVRhydian
p3526
aVTiago Iorc
p3527
aVSet Your Goals
p3528
aVCheb Mami
p3529
aVMaria Rita
p3530
aVGotthard
p3531
aVRedbone
p3532
aVFrancis Dunnery
p3533
aVSandie Shaw
p3534
aVThird Eye Blind
p3535
aVDirty Projectors
p3536
aVLL Cool J
p3537
aVByron Cage
p3538
aVBilly Currington
p3539
aVeleventyseven
p3540
aVWar
p3541
aVThe Bolshoi
p3542
aVStreet Dogs
p3543
aVErasure
p3544
aVYolanda Del Rio
p3545
aVStevie Nicks
p3546
aVBlack Mountain
p3547
aVKid Rock
p3548
aVScritti Politti
p3549
aVSasha
p3550
aV1910 Fruitgum Company
p3551
aVThe Soft Boys
p3552
aVTrain
p3553
aVConfessor
p3554
aVAngel Witch
p3555
aVSomeone Still Loves You Boris Yeltsin
p3556
aVThe Slackers
p3557
aVGamma Ray
p3558
aVThe Church
p3559
aVLove and Rockets
p3560
aVSwallow The Sun
p3561
aVMike Oldfield
p3562
aVBlackalicious
p3563
aVAlvin Stardust
p3564
aVQuicksand
p3565
aVHank Ballard
p3566
aVEvan Dando
p3567
aVHerman Brood
p3568
aVTokio Hotel
p3569
aVLa Ley
p3570
aVMortification
p3571
aVThe American Analog Set
p3572
aVAndrea Bocelli
p3573
aVAnderson Bruford Wakeman Howe
p3574
aVThe Dodos
p3575
aVBattles
p3576
aVDierks Bentley
p3577
aVGob
p3578
aVRhapsody
p3579
aVHigh On Fire
p3580
aVRicardo Arjona
p3581
aVMinor Threat
p3582
aVEsham
p3583
aVThe Pipettes
p3584
aVLanghorne Slim
p3585
aVJet Set Satellite
p3586
aVNeotropic
p3587
aVKassav
p3588
aVChina Crisis
p3589
aVEric Johnson
p3590
aVSamantha Fox
p3591
aVLos Titanes
p3592
aVIrwin Goodman
p3593
aVBig Star
p3594
aVRage Against The Machine
p3595
aVThe Exies
p3596
aVClint Black
p3597
aVThe Whitest Boy Alive
p3598
aVFoals
p3599
aVOsker
p3600
aVRobbie Fulks
p3601
aVWanda Jackson
p3602
aVKevin Devine
p3603
aVCity And Colour
p3604
aVDismantled
p3605
aVDavid Crosby
p3606
aVAlex Ubago
p3607
aVEarl Klugh
p3608
aVDead Kennedys
p3609
aVUnwound
p3610
aVClaudio Baglioni
p3611
aVAimee Mann
p3612
aVRoger Miller
p3613
aVThe Tear Garden
p3614
aVThe Stills
p3615
aVThe Sundays
p3616
aVSlash
p3617
aVRhonda Vincent
p3618
aVThe Skatalites
p3619
aVEagles
p3620
aVDarlene Zschech
p3621
aVGiorgia
p3622
aVMercyful Fate
p3623
aVYankee Grey
p3624
aVRamallah
p3625
aVPeter Murphy
p3626
aVBat For Lashes
p3627
aVGarrison Starr
p3628
aVJonas Brothers
p3629
aVHardcore Superstar
p3630
aVErik Hassle
p3631
aVRobert Plant
p3632
aVDon Johnson
p3633
aVTracie Spencer
p3634
aVMercedes Sosa
p3635
aVMilly Quezada
p3636
aVThe Romantics
p3637
aVSylver
p3638
aVThe Wallflowers
p3639
aV1 Giant Leap
p3640
aVStraight Outta Junior High
p3641
aVDemi Lovato
p3642
aVEddie Rabbitt
p3643
aVSpice Girls
p3644
aVTwo Door Cinema Club
p3645
aVThese New Puritans
p3646
aVFranco De Vita
p3647
aVSilk
p3648
aVBlue Mountain
p3649
aVStephen Fretwell
p3650
aVRehab
p3651
aVMaria de Barros
p3652
aVSupertramp
p3653
aV45 Grave
p3654
aVRichard Thompson
p3655
aVUnsane
p3656
aVAfro Celt Sound System
p3657
aVMC Lyte
p3658
aVShampoo
p3659
aVRita Coolidge
p3660
aVSaliva
p3661
aVJennifer Lopez
p3662
aVI Am The World Trade Center
p3663
aVRobbie Rivera
p3664
aVRedd Kross
p3665
aVJohn Travolta
p3666
aVTru
p3667
aVAfter 7
p3668
aVJohnny Thunders
p3669
aVTara MacLean
p3670
aVKarnivool
p3671
aVTech N9ne
p3672
aVDean Martin
p3673
aVKids In The Way
p3674
aVChicken Shack
p3675
aVPescado Rabioso
p3676
aVLeona Lewis
p3677
aVTyrese
p3678
aVRatt
p3679
aVCameo
p3680
aVThe Forces Of Evil
p3681
aVDebby Boone
p3682
aVCamel
p3683
aVHarry Chapin
p3684
aVThe Dickies
p3685
aVPat Green
p3686
aVJump5
p3687
aVTrout Fishing in America
p3688
aVLucky Boys Confusion
p3689
aVCirca Survive
p3690
aVCrossfade
p3691
aVFederico Aubele
p3692
aVSlick Shoes
p3693
aVJesse Harris
p3694
aVBoy Meets Girl
p3695
aVCartel
p3696
aVLuis Miguel
p3697
aVBatmobile
p3698
aVUncle Sam
p3699
aVHarvey Danger
p3700
aVThe Chordettes
p3701
aVThe Rascals
p3702
aVPercy Sledge
p3703
aVDanger Radio
p3704
aVNatalia Lafourcade
p3705
aVMGMT
p3706
aVSiouxsie And The Banshees
p3707
aVThe Commitments
p3708
aVSophie Zelmani
p3709
aVSteve Miller
p3710
aVMethod Man
p3711
aVCock Robin
p3712
aVNight In Gales
p3713
aVAddison Groove Project
p3714
aVDarren Hayes
p3715
aVThe Deele
p3716
aVRocket From The Crypt
p3717
aVChristy Moore
p3718
aVMetal Church
p3719
aVThumb
p3720
aVAll Girl Summer Fun Band
p3721
aVThe Ark
p3722
aVTony Bennett
p3723
aVLloyd Banks
p3724
aVThe Highwaymen
p3725
aVTunng
p3726
aVVivian Girls
p3727
aVFairport Convention
p3728
aVJust Jack
p3729
aVThe Last Shadow Puppets
p3730
aVMartina Sorbara
p3731
aVMaanam
p3732
aVKikki Danielsson
p3733
aV2raumwohnung
p3734
aVBrandy
p3735
aVKhia
p3736
aVBackyard Babies
p3737
aVGeorge McCrae
p3738
aVAfter The Fire
p3739
aVAnacrusis
p3740
aVGraham Nash
p3741
aVPaul Kelly
p3742
aVAla Dos Namorados
p3743
aVHatebreed
p3744
aVBoys Like Girls
p3745
aVBook Of Love
p3746
aVDio
p3747
aVPato Fu
p3748
aVLionel Richie
p3749
aVHawk Nelson
p3750
aVClassic Case
p3751
aVJohnny Rivers
p3752
aVThirsty Merc
p3753
aVAvantasia
p3754
aVMaren Ord
p3755
aVAir
p3756
aVThe Chills
p3757
aVEddie Cochran
p3758
aVSecret Service
p3759
aVBarbara Mandrell
p3760
aVDaisy Chainsaw
p3761
aVAni DiFranco
p3762
aVTelefon Tel Aviv
p3763
aVEfecto Mariposa
p3764
aVAmerie
p3765
aVPhillys Most Wanted
p3766
aVKenny
p3767
aVFranz Ferdinand
p3768
aVHollywood Undead
p3769
aVCarrie Newcomer
p3770
aVPolly Scattergood
p3771
aVBlack Label Society
p3772
aVSocial Distortion
p3773
aVRichard Shindell
p3774
aVPhyllis Hyman
p3775
aVChambao
p3776
aVMelanie Thornton
p3777
aV504 Boyz
p3778
aVAirlock
p3779
aVCanned Heat
p3780
aVSilje Nergaard
p3781
aVJimmy Wayne
p3782
aVDaft Punk
p3783
aVMNEMIC
p3784
aVDesmond Dekker
p3785
aVGirls Against Boys
p3786
aVWayne Bergeron
p3787
aVFrank Vignola
p3788
aVAnimal Collective
p3789
aVLefty Frizzell
p3790
aVAvishai Cohen
p3791
aVDavid Jordan
p3792
aVEd Bruce
p3793
aVBuilt To Spill
p3794
aVDashboard Confessional
p3795
aVThe Dear Hunter
p3796
aVAmos Lee
p3797
aVPlanet Funk
p3798
aVFoxy Brown
p3799
aVAmy Diamond
p3800
aVJaguar Wright
p3801
aVStan Freberg
p3802
aVDamien Jurado
p3803
aVSandy Denny
p3804
aVCandiria
p3805
aVSwitches
p3806
aVBonnie Raitt
p3807
aVShanadoo
p3808
aVPlasmatics
p3809
aVSwing Out Sister
p3810
aVMarea
p3811
aVWe The Kings
p3812
aVSlick Idiot
p3813
aVCobra Starship
p3814
aVErin McKeown
p3815
aVTones On Tail
p3816
aVDuncan Dhu
p3817
aVSea Wolf
p3818
aVRasputina
p3819
aVSusheela Raman
p3820
aVSergio Mendes
p3821
aVGeorges Brassens
p3822
aVHaujobb
p3823
aVOneRepublic
p3824
aVFifteen
p3825
aVFall Out Boy
p3826
aVSanctuary
p3827
aVDarryl Worley
p3828
aVPilot Speed
p3829
aVGrand Funk Railroad
p3830
aVHeavens to Betsy
p3831
aVCathy Dennis
p3832
aVMy Favorite Highway
p3833
aVMatt Willis
p3834
aVPriestess
p3835
aVPastor Troy
p3836
aVMya
p3837
aVThe Proclaimers
p3838
aVDel Amitri
p3839
aVSarah Slean
p3840
aVDala
p3841
aVPlacebo
p3842
aVThe Black Ghosts
p3843
aVLuka Bloom
p3844
aVTenacious D
p3845
aVMelendi
p3846
aVGovernment Issue
p3847
aVJorma Kaukonen
p3848
aVRegina Belle
p3849
aVSevered Heads
p3850
aVRun Kid Run
p3851
aVPowderfinger
p3852
aVChris LeDoux
p3853
aVDwarves
p3854
aVDirty Vegas
p3855
aVFrank Black
p3856
aVBiffy Clyro
p3857
aVKeziah Jones
p3858
aVGrave Digger
p3859
aVExilia
p3860
aVSpirit of the West
p3861
aVBlackHawk
p3862
aVThe Gaylads
p3863
aVMoving Units
p3864
aVGrizzly Bear
p3865
aVIAMX
p3866
aVLaura Cantrell
p3867
aVHell Is For Heroes
p3868
aVThrowing Muses
p3869
aVSing It Loud
p3870
aVThe Allman Brothers Band
p3871
aVJodeci
p3872
aVDepeche Mode
p3873
aVChristine Anu
p3874
aVSpineshank
p3875
aVRob Zombie
p3876
aVSavoy Brown
p3877
aVAslyn
p3878
aVEverything
p3879
aVSlapp Happy
p3880
aVBens Brother
p3881
aVDaniel Powter
p3882
aVPassion Pit
p3883
aVDavid Archuleta
p3884
aVRuth
p3885
aVBilly Preston
p3886
aVLaFee
p3887
aVRam Jam
p3888
aVAngel City
p3889
aVThe Trashmen
p3890
aVLooptroop
p3891
aVTravis Tritt
p3892
aVArcade
p3893
aVFobia
p3894
aVTonedeff
p3895
aVPrimitive Radio Gods
p3896
aVJes
p3897
aVThere For Tomorrow
p3898
aVDen Harrow
p3899
aVMano Negra
p3900
aVLondon After Midnight
p3901
aVRegurgitator
p3902
aVLindsay Lohan
p3903
aVPresuntos Implicados
p3904
aVDave Navarro
p3905
aVThe Receiving End Of Sirens
p3906
aVDem Franchize Boyz
p3907
aVClouseau
p3908
aVRepublica
p3909
aVJimmies Chicken Shack
p3910
aVThe Idle Race
p3911
aVUnder The Influence Of Giants
p3912
aVThe Format
p3913
aVMorphine
p3914
aVThe Flying Burrito Brothers
p3915
aVJeru The Damaja
p3916
aVFaith No More
p3917
aVDavid Meece
p3918
aVSatchel
p3919
aVMisfits
p3920
aVFilter
p3921
aVMoby
p3922
aV1349
p3923
aVEspen Lind
p3924
aVMetro Station
p3925
aVPatty Loveless
p3926
aVThe Melodians
p3927
aVElio E Le Storie Tese
p3928
aVCradle Of Filth
p3929
aVIgnite
p3930
aVSecret Machines
p3931
aVConstantines
p3932
aVStevie Wonder
p3933
aVThe Delfonics
p3934
aVMartina McBride
p3935
aVCab Calloway
p3936
aVPaul Brandt
p3937
aVTHERION
p3938
aVChildren Of Bodom
p3939
aVThe Automatic
p3940
aVAtom And His Package
p3941
aVElan
p3942
aVThe Boy Least Likely To
p3943
aVRick Astley
p3944
aVThe Twilight Sad
p3945
aVPlus One
p3946
aVLand Of Talk
p3947
aVJoan Manuel Serrat
p3948
aVOrbital
p3949
aVJonatha Brooke
p3950
aVDaniel Balavoine
p3951
aVEva Cassidy
p3952
aVUnderworld
p3953
aVThomas Dolby
p3954
aVPatty Griffin
p3955
aVBodyjar
p3956
aVVanessa Williams
p3957
aVSteve Lawrence
p3958
aVRuben Studdard
p3959
aVLetoya
p3960
aVMelvins
p3961
aVJackyl
p3962
aVBrad Paisley
p3963
aVKate Havnevik
p3964
aVDe La Ghetto
p3965
aVRamones
p3966
aVGabinete Caligari
p3967
aVMad Caddies
p3968
aVOwl City
p3969
aVLeAnn Rimes
p3970
aVJohnny Crawford
p3971
aVSpin Doctors
p3972
aVYeasayer
p3973
aVFreeway
p3974
aVKoffee Brown
p3975
aVChumbawamba
p3976
aVSchool Of Seven Bells
p3977
aVSahara Hotnights
p3978
aVGala
p3979
aVNine Inch Nails
p3980
aVLee Rocker
p3981
aVNo Warning
p3982
aVFleetwood Mac
p3983
aVNick Cave
p3984
aVScatman John
p3985
aVBird York
p3986
aVMirah
p3987
aVLouis XIV
p3988
aVSister Sin
p3989
aVSean Kingston
p3990
aVToto Coelo
p3991
aVHYPOCRISY
p3992
aVHenry Rollins
p3993
aVFunkstar De Luxe
p3994
aVThe Urge
p3995
aVSissel
p3996
aVAM
p3997
aVMudvayne
p3998
aVBlack Light Burns
p3999
aVComet Gain
p4000
aVJohn Martyn
p4001
aVTub Ring
p4002
aVThe Who
p4003
aVTerence Trent DArby
p4004
aVFraming Hanley
p4005
aVAZ
p4006
aVSleeper
p4007
aVAriane Moffatt
p4008
aVTristania
p4009
aVFirehouse
p4010
aVDwight Yoakam
p4011
aVNazareth
p4012
aVFischerspooner
p4013
aVStyx
p4014
aVTasmin Archer
p4015
aVRata Blanca
p4016
aVAt Vance
p4017
aVFONZIE
p4018
aVIngrid Michaelson
p4019
aVLisa Germano
p4020
aVComeback Kid
p4021
aVBreakfast Club
p4022
aVRed Rider
p4023
aVWhitecross
p4024
aVTears For Fears
p4025
aVBeatsteaks
p4026
aVGeneration X
p4027
aVThe Corrs
p4028
aVMirwais
p4029
aVClawfinger
p4030
aVCaparezza
p4031
aVMIKA
p4032
aVSmartbomb
p4033
aVMagic Sam
p4034
aVThe Agony Scene
p4035
aVSaigon
p4036
aVJupiter Sunrise
p4037
aVMartin Grech
p4038
aVBig Tymers
p4039
aVSeeed
p4040
aVRay LaMontagne
p4041
aVLard
p4042
aVScarlett Johansson
p4043
aVGuy
p4044
aVTom Vek
p4045
aVGary Moore
p4046
aVRoyal Hunt
p4047
aVVince Gill
p4048
aVWinter Solstice
p4049
aVInsolence
p4050
aVVico C
p4051
aVSlim Whitman
p4052
aVRazorlight
p4053
aVTwin Atlantic
p4054
aVDon Gibson
p4055
aVChancho En Piedra
p4056
aVEminem
p4057
aVJimmie Dale Gilmore
p4058
aVEscape The Fate
p4059
aVAnastacia
p4060
aVCandie Payne
p4061
aVThe Grass Roots
p4062
aVDodgy
p4063
aVThe Cave Singers
p4064
aVEstados Alterados
p4065
aVGram Parsons
p4066
aVLinda Eder
p4067
aVPulley
p4068
aVKevin Lyttle
p4069
aVJoni Mitchell
p4070
aVDan Black
p4071
aVSean Watkins
p4072
aVOs Mutantes
p4073
aVThree Days Grace
p4074
aVThe Happenings
p4075
aVRed Animal War
p4076
aVDarden Smith
p4077
aVWynn Stewart
p4078
aVDon Henley
p4079
aVElbow
p4080
aVBENEDICTION
p4081
aVTaxiride
p4082
aVTuuli
p4083
aVJoJo
p4084
aVSandra
p4085
aVThe Cover Girls
p4086
aVNesian Mystik
p4087
aVGreen Carnation
p4088
aVThe Sonics
p4089
aVCircus Maximus
p4090
aVStill Remains
p4091
aVQuasi
p4092
aVSurface
p4093
aVWet Wet Wet
p4094
aVParis Combo
p4095
aVJunior Boys
p4096
aVJunior Walker
p4097
aVHalford
p4098
aVClan Of Xymox
p4099
aVFernando Ortega
p4100
aVBlind Melon
p4101
aV10cc
p4102
aVTanya Tucker
p4103
aVSlim Thug
p4104
aVPierre Perret
p4105
aVOrson
p4106
aVMadredeus
p4107
aVApoptygma Berzerk
p4108
aVBoyz II Men
p4109
aVNatasha Thomas
p4110
aVBoDeans
p4111
aV50 Cent
p4112
aVRoy Harper
p4113
aVPlaya Fly
p4114
aVArt Brut
p4115
aVThe Apples In Stereo
p4116
aVThe Disposable Heroes Of Hiphoprisy
p4117
aVZornik
p4118
aVMidtown
p4119
aVRoy Orbison
p4120
aVHilltop Hoods
p4121
aVCattle Decapitation
p4122
aVSay Hi
p4123
aVThe Dead Weather
p4124
aVHayes Carll
p4125
aVRandy Crawford
p4126
aVCamera Obscura
p4127
aVCatherine Wheel
p4128
aVZion
p4129
aVThe Brothers Four
p4130
aVLiving Colour
p4131
aVCamp Lo
p4132
aVThe Clash
p4133
aVThe Cure
p4134
aVImmortal Souls
p4135
aVSnow Patrol
p4136
aVRelient K
p4137
aVHolly Golightly
p4138
aVUltravox
p4139
aVCarla Bruni
p4140
aVDon Cornell
p4141
aVAu Revoir Simone
p4142
aVBen Lee
p4143
aVLeroy Van Dyke
p4144
aVColby ODonis
p4145
aVTrey Songz
p4146
aVAmerica
p4147
aVJimmy Ruffin
p4148
aVMetallica
p4149
aVThe Cardigans
p4150
aVLos Rabanes
p4151
aVPRIMAL FEAR
p4152
aVAmorphis
p4153
aVGentleman Reg
p4154
aVPet Shop Boys
p4155
aVEMF
p4156
aVIggy Pop
p4157
aVBehemoth
p4158
aVRight Said Fred
p4159
aVMansun
p4160
aVBreathe Carolina
p4161
aVCleopatra
p4162
aVWolfmother
p4163
aVLeela James
p4164
aVNickelback
p4165
aVAlien Sex Fiend
p4166
aVDeitrick Haddon
p4167
aVPeter Tosh
p4168
aVBarry Louis Polisar
p4169
aVHawthorne Heights
p4170
aVBrand X
p4171
aVFrench Kicks
p4172
aVBruce Hornsby
p4173
aVThe Rentals
p4174
aVChino XL
p4175
aVSamuele Bersani
p4176
aVJoy Electric
p4177
aVGerald Levert
p4178
aVNickel Creek
p4179
aVRazor
p4180
aVThe Wildhearts
p4181
aVThe Blasters
p4182
aVMutya Buena
p4183
aVGraham Parker
p4184
aVMonty Python
p4185
aVMaximilian Hecker
p4186
aVCaptain Sensible
p4187
aVThe Band
p4188
aVOs Paralamas Do Sucesso
p4189
aVRyan Cabrera
p4190
aVArchie Bronson Outfit
p4191
aVJorge Ben
p4192
aVWinger
p4193
aVMacaco
p4194
aVRyan Leslie
p4195
aVInfectious Grooves
p4196
aVFerry Corsten
p4197
aVMindless Self Indulgence
p4198
aVBrian Mcfadden
p4199
aVDanity Kane
p4200
aVKelly Price
p4201
aVCopeland
p4202
aVMountain
p4203
aVHorse The Band
p4204
aVGloria Gaynor
p4205
aVFrankmusik
p4206
aVGlenn Hughes
p4207
aVAnnie Lennox
p4208
aVDiana Ross
p4209
aVPeter Cincotti
p4210
aVThe Pop Group
p4211
aVMy Morning Jacket
p4212
aVThe Derailers
p4213
aVNico
p4214
aVCarlos Vives
p4215
aVJustin Timberlake
p4216
aVLiam Finn
p4217
aVCompulsion
p4218
aVJust Surrender
p4219
aVBy The Tree
p4220
aVShooter Jennings
p4221
aVLutricia Mcneal
p4222
aVGlass Tiger
p4223
aVBorn Jamericans
p4224
aVBelinda Carlisle
p4225
aVThin Lizzy
p4226
aVLaurent Voulzy
p4227
aVTrivium
p4228
aVMDC
p4229
aVBobaflex
p4230
aVJohn Rich
p4231
aVThe Subdudes
p4232
aVAkon
p4233
aVBlondie
p4234
aVOutlandish
p4235
aVEisbrecher
p4236
aVHolly Brook
p4237
aVAlain Bashung
p4238
aVCherry Ghost
p4239
aVSqueeze
p4240
aVDot Allison
p4241
aVVaya Con Dios
p4242
aVOn Broken Wings
p4243
aVBetty Boo
p4244
aVDanny Gokey
p4245
aVDavid Cassidy
p4246
aVSkankin Pickle
p4247
aVJET
p4248
aV32 Leaves
p4249
aVShadow Gallery
p4250
aVThe Postal Service
p4251
aVAmerican Music Club
p4252
aVWhite Town
p4253
aVMaxine Brown
p4254
aVGun
p4255
aVBroder Daniel
p4256
aVAstral Projection
p4257
aVLagwagon
p4258
aVWhiskeytown
p4259
aVNate Dogg
p4260
aVFairground Attraction
p4261
aVHatfield And The North
p4262
aVJets To Brazil
p4263
aVLamb Of God
p4264
aVLunatica
p4265
aVSons And Daughters
p4266
aVDavid Wilcox
p4267
aVThe 69 Eyes
p4268
aVThe Thrills
p4269
aVXscape
p4270
aVRoger Taylor
p4271
aVBlack Rebel Motorcycle Club
p4272
aVThe Teenagers
p4273
aVFonseca
p4274
aVColin Hay
p4275
aVMaria Mena
p4276
aVAventura
p4277
aVKris Allen
p4278
aVThe Gossip
p4279
aVBoy Kill Boy
p4280
aVMichael Crawford
p4281
aVHalifax
p4282
aVBad Astronaut
p4283
aVS Club 7
p4284
aVLee Ann Womack
p4285
aVKardinal Offishall
p4286
aVThe Archies
p4287
aVLuther Allison
p4288
aVOut Of The Grey
p4289
aVSaturday Looks Good To Me
p4290
aVCeltic Frost
p4291
aVTo My Surprise
p4292
aVGladys Knight
p4293
aVCibelle
p4294
aVSugarland
p4295
aVThe Word Alive
p4296
aVDivididos
p4297
aVThe Police
p4298
aVVashti Bunyan
p4299
aVThe Stranglers
p4300
aVDead Can Dance
p4301
aVWolfsheim
p4302
aVThe Album Leaf
p4303
aVSon By 4
p4304
aVThe Triffids
p4305
aVAfter Forever
p4306
aVNile
p4307
aVLos Enanitos Verdes
p4308
aVAled Jones
p4309
aVThe Saturdays
p4310
aVMadball
p4311
aVNEEDTOBREATHE
p4312
aVThe Zutons
p4313
aVAir Traffic
p4314
aVRichard Ashcroft
p4315
aVEllie Lawson
p4316
aVSamiam
p4317
aVSwollen Members
p4318
aVAlessis Ark
p4319
aVBeast
p4320
aVSamhain
p4321
aVGuster
p4322
aVHieroglyphics
p4323
aVFireflight
p4324
aVMungo Jerry
p4325
aVNadia Ali
p4326
aVMother Love Bone
p4327
aVWhale
p4328
aVDeep Dish
p4329
aVFlux of Pink Indians
p4330
aVHIM
p4331
aVAll About Eve
p4332
aVPop Levi
p4333
aVCharlie Peacock
p4334
aVNB Ridaz
p4335
aVPedro The Lion
p4336
aVRotting Christ
p4337
aVMarillion
p4338
aVGraham Colton
p4339
aVThe Wonder Stuff
p4340
aVEmery
p4341
aVCrowbar
p4342
aVFirefall
p4343
aVMolly Hatchet
p4344
aVJaguares
p4345
aVElbicho
p4346
aVDan Bern
p4347
aVAlice In Chains
p4348
aVChristopher Cross
p4349
aVBlue Foundation
p4350
aVCocoon
p4351
aVJob For A Cowboy
p4352
aVAlexia
p4353
aVMaria Muldaur
p4354
aVTanita Tikaram
p4355
aVPato Banton
p4356
aVDante Thomas
p4357
aVU96
p4358
aVGrant Lee Buffalo
p4359
aVCurrent 93
p4360
aVBlack Tide
p4361
aVBlueboy
p4362
aVMint Condition
p4363
aVSheek Louch
p4364
aVFrenzal Rhomb
p4365
aVThe Click Five
p4366
aVScary Kids Scaring Kids
p4367
aVMichel Sardou
p4368
aVArmored Saint
p4369
aVSammy Hagar
p4370
aVKinky Friedman
p4371
aVGemelli Diversi
p4372
aVLalah Hathaway
p4373
aVMadina Lake
p4374
aVSolomon Burke
p4375
aVNorthern Kings
p4376
aVDatarock
p4377
aVFates Warning
p4378
aVAyo
p4379
aVBlue October
p4380
aVSonique
p4381
aVBata Illic
p4382
aVTantric
p4383
aVOnyx
p4384
aVInterference
p4385
aVRonan Hardiman
p4386
aVVI3
p4387
aVSecret Garden
p4388
aVBahamadia
p4389
aVGemma Hayes
p4390
aVDaniele Silvestri
p4391
aVCharlotte Sometimes
p4392
aVThree Bad Jacks
p4393
aVBangles
p4394
aVMartika
p4395
aVBeirut
p4396
aVViolet Indiana
p4397
aVSevendust
p4398
aVRainer Maria
p4399
aVRohff
p4400
aVCave In
p4401
aVThe Impressions
p4402
aVMickey Gilley
p4403
aVDownhere
p4404
aVRobots In Disguise
p4405
aVHolly Valance
p4406
aVLyfe Jennings
p4407
aVLou Reed
p4408
aVHindi Zahra
p4409
aVdoubleDrive
p4410
aVBeres Hammond
p4411
aVWall Of Voodoo
p4412
aVGreen Day
p4413
aVThe Itals
p4414
aVAlice Russell
p4415
aVBette Midler
p4416
aVRosana
p4417
aVThe Dells
p4418
aVKings Of Leon
p4419
aVThe Fortunes
p4420
aVLovedrug
p4421
aVBishop Allen
p4422
aVThe Cloud Room
p4423
aVHello Saferide
p4424
aVThinkman
p4425
aVPharoahe Monch
p4426
aVPorta
p4427
aVCharlie Mars
p4428
aVScout Niblett
p4429
aVGarnett Silk
p4430
aVCan
p4431
aVClay Davidson
p4432
aVMegan McCauley
p4433
aVMidnight Oil
p4434
aVSeu Jorge
p4435
aVDelta Goodrem
p4436
aVKeith Anderson
p4437
aVGreenwheel
p4438
aVMatthew Jay
p4439
aVKrezip
p4440
aVAlice Donut
p4441
aVDwele
p4442
aVEluveitie
p4443
aVDru Hill
p4444
aVEmilie Simon
p4445
aVFaster Pussycat
p4446
aVPlayaz Circle
p4447
aVPermanent Me
p4448
aVChantal Kreviazuk
p4449
aVDeep Purple
p4450
aVCourtney Love
p4451
aVCapital Inicial
p4452
aVScott Walker
p4453
aVEddie Holland
p4454
aVJulia Fordham
p4455
aVmatchbox twenty
p4456
aVSha Na Na
p4457
aVThe New Cities
p4458
aVLow Millions
p4459
aVUntil June
p4460
aVEnuff ZNuff
p4461
aVDressy Bessy
p4462
aVBillie Myers
p4463
aVApril Wine
p4464
aVRobert Forster
p4465
aVChuck Willis
p4466
aVFabolous
p4467
aVThe Watson Twins
p4468
aVNext
p4469
aVWolverine
p4470
aVBrand New Sin
p4471
aVNatalie
p4472
aVMississippi Sheiks
p4473
aVRoots Manuva
p4474
aVHolly Dolly
p4475
aVMegadeth
p4476
aVFee
p4477
aVShinedown
p4478
aVJulie Roberts
p4479
aVThe Rasmus
p4480
aVInara George
p4481
aVGuns N Roses
p4482
aVLynyrd Skynyrd
p4483
aVBlackfield
p4484
aVPromoe
p4485
aVThe Subways
p4486
aVColbie Caillat
p4487
aVLokua Kanza
p4488
aVWhole Wheat Bread
p4489
aVRecoil
p4490
aVPig Destroyer
p4491
aVIllya Kuryaki And The Valderramas
p4492
aVSam Sparro
p4493
aVChange
p4494
aVLife In Your Way
p4495
aVGrave
p4496
aVHilary Duff
p4497
aVRakim
p4498
aVJohnny Cash
p4499
aVAtlanta Rhythm Section
p4500
aVMatthew Dear
p4501
aVLes Choristes
p4502
aVEd Harcourt
p4503
aVJim Capaldi
p4504
aVLos Rodriguez
p4505
aVKreesha Turner
p4506
aVOrange Blue
p4507
aVDevin Townsend
p4508
aVYolanda Adams
p4509
aVBardot
p4510
aVAudiovent
p4511
aVLacuna Coil
p4512
aVWhite Rabbits
p4513
aVCSS
p4514
aVBig Audio Dynamite
p4515
aVEndeverafter
p4516
aVElvin Bishop
p4517
aVElvis Presley
p4518
aVSmokie Norful
p4519
aVJovenes Pordioseros
p4520
aVSlowdive
p4521
aVThe Surfaris
p4522
aVJulie London
p4523
aVLighthouse Family
p4524
aVAiden
p4525
aVNatalie Walker
p4526
aVArsenal
p4527
aVDynamite Boy
p4528
aVTimo Maas
p4529
aVBay City Rollers
p4530
aVThe Grouch
p4531
aVAlien Ant Farm
p4532
aVAnnihilator
p4533
aVMelanie C
p4534
aVEtta Jones
p4535
aVCibo Matto
p4536
aVMarty Robbins
p4537
aVElvis Crespo
p4538
aVStephen Stills
p4539
aVLamb
p4540
aVSymphony X
p4541
aVShola Ama
p4542
aVGotye
p4543
aVRoyal Flush
p4544
aVSharon Redd
p4545
aVSupersuckers
p4546
aVHeavenly
p4547
aVWir Sind Helden
p4548
aVLuscious Jackson
p4549
aVAlaine
p4550
aVColin Meloy
p4551
aVASHES dIVIDE
p4552
aVNatalie Merchant
p4553
aVEmitt Rhodes
p4554
aVShadows Fall
p4555
aVZeca Baleiro
p4556
aVBlood For Blood
p4557
aVLostprophets
p4558
aVWarrant
p4559
aVDead Or Alive
p4560
aVThe Beautiful Girls
p4561
aVAretha Franklin
p4562
aVTen Shekel Shirt
p4563
aVAndy Andy
p4564
aVSonic Youth
p4565
aVGood Shoes
p4566
aVShenandoah
p4567
aVSix Feet Under
p4568
aVBobby Goldsboro
p4569
aVPetula Clark
p4570
aVCollie Buddz
p4571
aVChris Rock
p4572
aVKaty Perry
p4573
aVThe Asteroids Galaxy Tour
p4574
aVThe Dandy Warhols
p4575
aVBasement Jaxx
p4576
aVDave Hollister
p4577
aVDax Riders
p4578
aVYoung Money
p4579
aVGravity Kills
p4580
aVCypress Hill
p4581
aVWicked Wisdom
p4582
aVPaul Weller
p4583
aVFerron
p4584
aV113
p4585
aVDexter Freebish
p4586
aVDonavon Frankenreiter
p4587
aVJim Jones
p4588
aVFreedom Call
p4589
aVSweet Sensation
p4590
aVGloria Trevi
p4591
aVCadet
p4592
aVTracy Byrd
p4593
aVGentle Giant
p4594
aVThe Raconteurs
p4595
aVLinda Ronstadt
p4596
aVRy Cooder
p4597
aVJagged Edge
p4598
aVFyfe Dangerfield
p4599
aVKim Richey
p4600
aVInfinite Mass
p4601
aVVisage
p4602
aVConcrete Blonde
p4603
aVBig House
p4604
aVKanye West
p4605
aVNino Bravo
p4606
aVElephant Parade
p4607
aVJet Black Stare
p4608
aVOMD
p4609
aVRoll Deep
p4610
aVSTRATOVARIUS
p4611
aVThe Temptations
p4612
aVCompany Flow
p4613
aVThe Lawrence Arms
p4614
aVCali Agents
p4615
aVThe Exploited
p4616
aVMy Chemical Romance
p4617
aVEl Canto del Loco
p4618
aVEmbrace
p4619
aVBobbie Gentry
p4620
aVGeorge Michael
p4621
aVKristian Leontiou
p4622
aVSandi Thom
p4623
aVThe Undertones
p4624
aVPatricia Manterola
p4625
aVManfred Mann
p4626
aVDilated Peoples
p4627
aVSteve Vai
p4628
aVThe Tractors
p4629
aVCass McCombs
p4630
aVEconoline Crush
p4631
aVClem Snide
p4632
aVThe Dead 60s
p4633
aVBig Dismal
p4634
aVMy Ruin
p4635
aVExpatriate
p4636
aVMC5
p4637
aVJohn Stewart
p4638
aVRyan Adams
p4639
aVDelerium
p4640
aVTimebox
p4641
aVArpeggio
p4642
aVEnd Of Fashion
p4643
aVFunkdoobiest
p4644
aVYoung Buck
p4645
aVChubby Checker
p4646
aVThe Adicts
p4647
aVTimbuk 3
p4648
aVTimbalada
p4649
aVCauterize
p4650
aVNatalie Cole
p4651
aVMiranda Lambert
p4652
aVTHE THREE DEGREES
p4653
aVMasterplan
p4654
aVKiss
p4655
aVThe Bravery
p4656
aVJohn Legend
p4657
aVThe Cool Kids
p4658
aVSteve Miller Band
p4659
aVKelly Sweet
p4660
aVPaul Carrack
p4661
aVCage The Elephant
p4662
aVThe Morning Of
p4663
aVKNaan
p4664
aVNick Lowe
p4665
aVDanielson
p4666
aVPuya
p4667
aVAnthony David
p4668
aVAugustana
p4669
aVYear Of The Rabbit
p4670
aVMillionaire
p4671
aVSelena Gomez
p4672
aVAndy Griggs
p4673
aVTiger Army
p4674
aVNine Black Alps
p4675
aVGodsmack
p4676
aVHeartless Bastards
p4677
aVJesse Johnson
p4678
aVCaptain Jack
p4679
aVBrandon Heath
p4680
aVMargaret Becker
p4681
aVDinah Washington
p4682
aVTsunami Bomb
p4683
aVNumber One Gun
p4684
aVLos Tres
p4685
aVPhil Stacey
p4686
aVJimi Hendrix
p4687
aVBloodlined Calligraphy
p4688
aVEntombed
p4689
aVPatrick Bruel
p4690
aVSoulsister
p4691
aVThe Blow Monkeys
p4692
aVFair Warning
p4693
aVPoe
p4694
aVBad Manners
p4695
aVThe Outlaws
p4696
aVGene Clark
p4697
aVGonzalo Rubalcaba
p4698
aVBettye Swann
p4699
aVBlue Cheer
p4700
aVAnimals on Wheels
p4701
aVMillencolin
p4702
aVQueensryche
p4703
aVMack 10
p4704
aVAlecia Elliott
p4705
aVZeca Pagodinho
p4706
aVKelly Jones
p4707
aVMarisela
p4708
aVArlo Guthrie
p4709
aVSass Jordan
p4710
aVPhil Collins
p4711
aVModern English
p4712
aVPAULA COLE
p4713
aVThe Shins
p4714
aVThe New Pornographers
p4715
aVCarmen Consoli
p4716
aVClose Your Eyes
p4717
aVFanfarlo
p4718
aVDe La Soul
p4719
aVHallucinogen
p4720
aVGiusy Ferreri
p4721
aVFailure
p4722
aVThe Planet Smashers
p4723
aVRufus Wainwright
p4724
aVRosetta Stone
p4725
aVDrowning Pool
p4726
aVAlesha Dixon
p4727
aVSufjan Stevens
p4728
aVThe Avett Brothers
p4729
aVSlum Village
p4730
aVCalogero
p4731
aVAdrienne Pierce
p4732
aVDream Warriors
p4733
aVAndrea Echeverri
p4734
aVGrant Lee Phillips
p4735
aVThe Tears
p4736
aVMark Hollis
p4737
aVChavela Vargas
p4738
aVPrimus
p4739
aVMatt Dusk
p4740
aVKing Geedorah
p4741
aVFergie
p4742
aVDntel
p4743
aVCounting Crows
p4744
aVKeel
p4745
aVRobben Ford
p4746
aVMC Solaar
p4747
aVZizi Possi
p4748
aVChuck Wicks
p4749
aVAmel Bent
p4750
aVCamilo Sesto
p4751
aVDrake Bell
p4752
aVThe Gaslight Anthem
p4753
aVKim Mitchell
p4754
aVJohnnie Taylor
p4755
aVAlice In Videoland
p4756
aVThe Long Blondes
p4757
aVThe Organ
p4758
aVStina Nordenstam
p4759
aVSteppenwolf
p4760
aVTemple Of The Dog
p4761
aVPsapp
p4762
aVMorning Runner
p4763
aVKelly Rowland
p4764
aVThe Lettermen
p4765
aVThe Electric Soft Parade
p4766
aVMatchbook Romance
p4767
aVEmily Osment
p4768
aVMan Alive
p4769
aVJadiel
p4770
aVMarnie Stern
p4771
aVJoy Division
p4772
aVRoddy Frame
p4773
aVRa
p4774
aVUltimate Fakebook
p4775
aVVasco Rossi
p4776
aVDuane Allman
p4777
aVSparta
p4778
aVMark Eitzel
p4779
aVJohn McDermott
p4780
aVWilla Ford
p4781
aVThe Levellers
p4782
aVGolden Smog
p4783
aVChuck Ragan
p4784
aVBlindside
p4785
aVZox
p4786
aVCheryl Lynn
p4787
aVSheryl Crow
p4788
aVMerle Travis
p4789
aVPetra
p4790
aVGyroscope
p4791
aVAnother Sunny Day
p4792
aVBread
p4793
aVJohnny Paycheck
p4794
aVLas Ketchup
p4795
aVTy Herndon
p4796
aVThe Enemy
p4797
aVEvergreen Terrace
p4798
aVJimmy Eat World
p4799
aVMachines of Loving Grace
p4800
aVAdequate Seven
p4801
aVStonewall Jackson
p4802
aVBuddy Guy
p4803
aVThe Alarm
p4804
aVPaul Siebel
p4805
aVMoneen
p4806
aVMidge Ure
p4807
aVThe Good Life
p4808
aVWarrior Soul
p4809
aVBlancmange
p4810
aVWhitesnake
p4811
aVBilly Idol
p4812
aVVan She
p4813
aVFaith Hill
p4814
aVJimmy Dean
p4815
aVYodelice
p4816
aVNural
p4817
aVThe Presidents of the United States of America
p4818
aVMystery Jets
p4819
aVThe Plimsouls
p4820
aVAnthony Hamilton
p4821
aVAnnett Louisan
p4822
aVMalevolent Creation
p4823
aVDj Sammy
p4824
aVPaul Westerberg
p4825
aVThe Rapture
p4826
aVJaheim
p4827
aVEn Vogue
p4828
aVNovembre
p4829
aVThunderstone
p4830
aVThe Greencards
p4831
aVThe Dillinger Escape Plan
p4832
aVSarah Connor
p4833
aVFreddie Mercury
p4834
aVThe Polyphonic Spree
p4835
aVLos Jaivas
p4836
aVShirley Horn
p4837
aVRogue Wave
p4838
aVRobin Gibb
p4839
aVDirty Three
p4840
aVMiranda Sex Garden
p4841
aVThe Maccabees
p4842
aVRIP SLYME
p4843
aVThe Beatnuts
p4844
aVPoison Idea
p4845
aVShowaddywaddy
p4846
aVThe Foreign Exchange
p4847
aVGroup 1 Crew
p4848
aVJessi Colter
p4849
aVJocelyn Enriquez
p4850
aVMonie Love
p4851
aVInspectah Deck
p4852
aVAlessandra Amoroso
p4853
aVALO
p4854
aVCataract
p4855
aVEdie Brickell
p4856
aVDuncan James
p4857
aVBurden Of A Day
p4858
aVDark Funeral
p4859
aVThe Communards
p4860
aVDas Ich
p4861
aVCross Canadian Ragweed
p4862
aVLow
p4863
aVJamelia
p4864
aVThe Walkmen
p4865
aVNicolai Dunger
p4866
aVCheryl Cole
p4867
aVGaelic Storm
p4868
aVHumble Pie
p4869
aVImmortal Technique
p4870
aVCanibus
p4871
aVHowlin Wolf
p4872
aVVomitory
p4873
aVJulian Lennon
p4874
aVThe High Strung
p4875
aVMonrose
p4876
aVCaribou
p4877
aVSpace
p4878
aVCapn Jazz
p4879
aVRon Sexsmith
p4880
aVThe Faint
p4881
aVThe Apex Theory
p4882
aVBetter Than Ezra
p4883
aVBuena Vista Social Club
p4884
aVThis Is Hell
p4885
aVBonnie McKee
p4886
aVThe Sugarcubes
p4887
aVSteel Panther
p4888
aVSandro
p4889
aVTrouble
p4890
aVBecky Baeling
p4891
aVJulianne Hough
p4892
aVDismal Euphony
p4893
aVBow Wow Wow
p4894
aVBurning Spear
p4895
aVGrand Duchy
p4896
aVKing
p4897
aVDie Mannequin
p4898
aVVoxtrot
p4899
aVSlipknot
p4900
aVBoys Night Out
p4901
aVYoussoupha
p4902
aVChicks On Speed
p4903
aVEl Cuarteto De Nos
p4904
aVAlec Empire
p4905
aVKindred the Family Soul
p4906
aVThe Other Two
p4907
aVChairmen Of The Board
p4908
aVMiike Snow
p4909
aV3rd Bass
p4910
aVPuddle Of Mudd
p4911
aVMariah Carey
p4912
aVMainstay
p4913
aVTindersticks
p4914
aVIn This Moment
p4915
aVAlex Band
p4916
aVBright Eyes
p4917
aV4 Non Blondes
p4918
aVPovertys no Crime
p4919
aVDavid Allan Coe
p4920
aVCharlie Hall
p4921
aVFireside
p4922
aVDry Kill Logic
p4923
aVSpencer Day
p4924
aVRusted Root
p4925
aVKristin Hersh
p4926
aVIncubus
p4927
aVLambchop
p4928
aVKid Sister
p4929
aVStacie Orrico
p4930
aVCircle II Circle
p4931
aVPixie Lott
p4932
aVFiction Plane
p4933
aVSugababes
p4934
aVYazoo
p4935
aVPiebald
p4936
aVVioleta Parra
p4937
aVCooler Kids
p4938
aVBrian Setzer
p4939
aVVienna Teng
p4940
aVBrujeria
p4941
aVLocal H
p4942
aVThe Jayhawks
p4943
aVCarter The Unstoppable Sex Machine
p4944
aVLindsey Buckingham
p4945
aVCaitlin Cary
p4946
aVMarina And The Diamonds
p4947
aVLa Roux
p4948
aVFuel
p4949
aVGuy Clark
p4950
aVLil Wyte
p4951
aVSusan Tedeschi
p4952
aVBigbang
p4953
aVSkunk Anansie
p4954
aVThomas Cunningham
p4955
aVSun Kil Moon
p4956
aVDope
p4957
aVAs We Fight
p4958
aVApocalyptica
p4959
aVGustavo Cerati
p4960
aVDevilDriver
p4961
aVBrenda Russell
p4962
aVVoivod
p4963
aVMiley Cyrus
p4964
aVRed Snapper
p4965
aVCloud Cult
p4966
aVDixie Chicks
p4967
aVRaging Speedhorn
p4968
aVChuck Prophet
p4969
aVMontgomery Gentry
p4970
aVEmerson Hart
p4971
aVTiken Jah Fakoly
p4972
aVSteriogram
p4973
aVStandstill
p4974
aVWe Are The Fallen
p4975
aVThe Notting Hillbillies
p4976
aVAudio Adrenaline
p4977
aVChoirboys
p4978
aVRide
p4979
aVShout Out Louds
p4980
aVJosh Turner
p4981
aVLinkin Park
p4982
aVThe Wailin Jennys
p4983
aVAudience
p4984
aVLasgo
p4985
aVSouthern Culture On The Skids
p4986
aVHawksley Workman
p4987
aVLara Fabian
p4988
aVAmanda Blank
p4989
aVDance Gavin Dance
p4990
aVToni Basil
p4991
aVJosh Rouse
p4992
aVRose Royce
p4993
aVReik
p4994
aVMomus
p4995
aVHouston
p4996
aVPrefab Sprout
p4997
aVThird Day
p4998
aVGeneva
p4999
aVCapital Lights
p5000
aVPrimal Scream
p5001
aVAs Tall As Lions
p5002
aVDiamond Head
p5003
aVSmoke Or Fire
p5004
aVEl Perro Del Mar
p5005
aVSquarepusher
p5006
aVLuz Casal
p5007
aVMatt Nathanson
p5008
aVThreshold
p5009
aVJordin Sparks
p5010
aVUnderoath
p5011
aVExtol
p5012
aVFountains Of Wayne
p5013
aVEverything But The Girl
p5014
aVSquirrel Nut Zippers
p5015
aVThe Calling
p5016
aVBombshell Rocks
p5017
aVSmall Faces
p5018
aVCircle Jerks
p5019
aVMike Ness
p5020
aVLisa Ekdahl
p5021
aVTinchy Stryder
p5022
aVDragonforce
p5023
aVRyan Bingham
p5024
aVJoachim Witt
p5025
aVBob Sinclar
p5026
aVAntimatter
p5027
aVApollo 440
p5028
aVJack Johnson
p5029
aVS Club Juniors
p5030
aVStrapping Young Lad
p5031
aVJohn Miles
p5032
aVThe Whitlams
p5033
aVChely Wright
p5034
aVThe Young Knives
p5035
aVReverend Bizarre
p5036
aVThe Stone Roses
p5037
aVNew Order
p5038
aVBob Mould
p5039
aVThe Veils
p5040
aVApril March
p5041
aVJackie Wilson
p5042
aVImogen Heap
p5043
aVLos Amigos Invisibles
p5044
aVBebo Norman
p5045
aVThe Business
p5046
aVChris Isaak
p5047
aVCamila
p5048
aVTeenage Fanclub
p5049
aVShe Wants Revenge
p5050
aVDiablo
p5051
aVPhil Lynott
p5052
aVLollipop Lust Kill
p5053
aVThe Early November
p5054
aVHaste The Day
p5055
aVChristian Kjellvander
p5056
aVAllen Toussaint
p5057
aVGuns n Wankers
p5058
aVBlack Grape
p5059
aVBad Cash Quartet
p5060
aVLiam Lynch
p5061
aVNina Sky
p5062
aVThe Supervillains
p5063
aVCorona
p5064
aVChris Young
p5065
aVThe Promise Ring
p5066
aVMatt Monro
p5067
aVJoan Osborne
p5068
aVFilm School
p5069
aVHombres G
p5070
aVThe Seekers
p5071
aVBlack Moon
p5072
aVRenaissance
p5073
aVEliane Elias
p5074
aVZion I
p5075
aVBig Bad Voodoo Daddy
p5076
aVThe Sunday Drivers
p5077
aVOrganized Konfusion
p5078
aVHelloween
p5079
aVAudio Bullys
p5080
aVBilly Ocean
p5081
aVArmin van Buuren
p5082
aVJessica Simpson
p5083
aVWay Out West
p5084
aVFlunk
p5085
aVThe Tough Alliance
p5086
aVCreed
p5087
aVGino Vannelli
p5088
aVInsane Clown Posse
p5089
aVBlind Faith
p5090
aVVonda Shepard
p5091
aVB5
p5092
aVOverkill
p5093
aVSince October
p5094
aVDamone
p5095
aVThirteen Senses
p5096
aVTimbiriche
p5097
aVJanis Joplin
p5098
aVFear
p5099
aVKreator
p5100
aVStaind
p5101
aVLonestar
p5102
aVThe Youngbloods
p5103
aVBill Withers
p5104
aVValley of the Giants
p5105
aVThe Dream Academy
p5106
aVVelvet Revolver
p5107
aVEmmanuel
p5108
aVSwervedriver
p5109
aVThe Coral
p5110
aVManowar
p5111
aVMonty Are I
p5112
aVU2
p5113
aVVox Dei
p5114
aVBloodbath
p5115
aVBeatallica
p5116
aVIntocable
p5117
aVGuano Apes
p5118
aVDecyfer Down
p5119
aV112
p5120
aVVanessa Carlton
p5121
aVFuture Of Forestry
p5122
aVSkank
p5123
aVLucky Dube
p5124
aVFinley Quaye
p5125
aVSteely Dan
p5126
aVLos Pericos
p5127
aVDavid Pack
p5128
aVPatrice Rushen
p5129
aVPhil Vassar
p5130
aVRoger McGuinn
p5131
aVTrevor Hall
p5132
aVRocket From The Tombs
p5133
aVThe Equals
p5134
aVHermans Hermits
p5135
aVYellowcard
p5136
aVBob Evans
p5137
aVMeshuggah
p5138
aVRascal Flatts
p5139
aVPure Prairie League
p5140
aVRoscoe
p5141
aVDeerhoof
p5142
aVStreetwize
p5143
aVThe Classic Crime
p5144
aVThe Roches
p5145
aVLa Tordue
p5146
aVDolour
p5147
aVKate Nash
p5148
aVJustin Rutledge
p5149
aVKind of Like Spitting
p5150
aVShy Child
p5151
aVDan Auerbach
p5152
aVDuran Duran
p5153
aVJewel
p5154
aVLittle Jackie
p5155
aVBobby Sherman
p5156
aVMushroomhead
p5157
aVMadeleine Peyroux
p5158
aVUtopia
p5159
aVFlickerstick
p5160
aVBlackmail
p5161
aVChad Vangaalen
p5162
aVSparklehorse
p5163
aVAlanis Morissette
p5164
aVBritny Fox
p5165
aVDeep Forest
p5166
aVFace To Face
p5167
aVPete Townshend
p5168
aVGRANDADDY
p5169
aVNewsboys
p5170
aVTransvision Vamp
p5171
aVXandria
p5172
aVArthur Conley
p5173
aVCaravan
p5174
aVEmma Bunton
p5175
aVHopesfall
p5176
aVRookie Of The Year
p5177
aVRicky Skaggs
p5178
aVTim Christensen
p5179
aVDeacon Blue
p5180
aVDream Evil
p5181
aVLovehatehero
p5182
aVMaroon 5
p5183
aVGeorge Jones
p5184
aVBusdriver
p5185
aVLifetime
p5186
aVJuana Molina
p5187
aVKid Abelha
p5188
aVTen Years After
p5189
aVBlessid Union Of Souls
p5190
aVCal Smith
p5191
aVDennis Brown
p5192
aVScooter
p5193
aVCaesars
p5194
aVDaniel Lemma
p5195
aVConsolidated
p5196
aVMetalium
p5197
aVElis Regina
p5198
aVNeko Case
p5199
aVMudhoney
p5200
aVRaphael
p5201
aVThe Damage Manual
p5202
aV1208
p5203
aVClient
p5204
aVSmokey Robinson
p5205
aVGuadalcanal Diary
p5206
aVPolly Paulusma
p5207
aVErin McCarley
p5208
aVCovenant
p5209
aVLady Sovereign
p5210
aVRoses Are Red
p5211
aVSimian Mobile Disco
p5212
aVCondemned 84
p5213
aVStraylight Run
p5214
aVSavage Garden
p5215
aVI Killed The Prom Queen
p5216
aVThe Rolling Stones
p5217
aVLil Suzy
p5218
aVJohnny Gill
p5219
aVKero One
p5220
aVFred Astaire
p5221
aVDonna The Buffalo
p5222
aVOpus III
p5223
aVGabriella Cilmi
p5224
aVBilly Squier
p5225
aVWidespread Panic
p5226
aVDance Hall Crashers
p5227
aVEddie Money
p5228
aVImperia
p5229
aVMethods Of Mayhem
p5230
aV3 Doors Down
p5231
aVKim Waters
p5232
aVThe Pussycat Dolls
p5233
aVWill To Power
p5234
aVAudioslave
p5235
aVUnsung Zeros
p5236
aVThe Forester Sisters
p5237
aVPete Droge
p5238
aVKaci Brown
p5239
aVThe Airborne Toxic Event
p5240
aVAnnuals
p5241
aVKlymaxx
p5242
aVCassidy
p5243
aVDennis Coffey
p5244
aVStraight No Chaser
p5245
aVFantasia
p5246
aVThe Dictators
p5247
aVAlliance Ethnik
p5248
aVReckless Kelly
p5249
aVVanessa Hudgens
p5250
aVKlaxons
p5251
aVSally Shapiro
p5252
aVJohn Parr
p5253
aV2 Pistols
p5254
aVLoudermilk
p5255
aVThe Tokens
p5256
aVElba Ramalho
p5257
aVSimply Red
p5258
aVPolygon Window
p5259
aVGreat White
p5260
aVPlanetshakers
p5261
aVSo They Say
p5262
aVbathory
p5263
aVCatatonia
p5264
aVCirith Ungol
p5265
aVBrandi Carlile
p5266
aVSoundgarden
p5267
aVHarmony
p5268
aVBronski Beat
p5269
aVRacoon
p5270
aV2 Minutos
p5271
aVUnwritten Law
p5272
aVBe Bop Deluxe
p5273
aVEvanescence
p5274
aVNorman Connors
p5275
aVThe Sylvers
p5276
aVCut Copy
p5277
aVhoneyhoney
p5278
aVNeil Sedaka
p5279
aVDangerous Toys
p5280
aVThe Puppini Sisters
p5281
aVButthole Surfers
p5282
aVAlias
p5283
aVBardo Pond
p5284
aVLunik
p5285
aVKrisiun
p5286
aVVangelis
p5287
aVSmile Empty Soul
p5288
aVHot Hot Heat
p5289
aVRestless Heart
p5290
aVSilversun Pickups
p5291
aVThe Divine Comedy
p5292
aVLizz Wright
p5293
aVChapterhouse
p5294
aVMaywood
p5295
aVLittle Feat
p5296
aVEl Arrebato
p5297
aVScissor Sisters
p5298
aVM83
p5299
aVIMMORTAL
p5300
aVCelly Cel
p5301
aVGene McDaniels
p5302
aVSean Paul
p5303
aVCrime Mob
p5304
aVBlack Box Recorder
p5305
aVSNFU
p5306
aVIvoryline
p5307
aVRazed in Black
p5308
aVOhrbooten
p5309
aVMilburn
p5310
aVThe Association
p5311
aVJoshua Radin
p5312
aVMilli Vanilli
p5313
aVBran Van 3000
p5314
aVKottonmouth Kings
p5315
aVPillar
p5316
aVThe Glove
p5317
aVJesus Jones
p5318
aVMolly Jenson
p5319
aVDiabolical Masquerade
p5320
aVLuciana Souza
p5321
aVRooney
p5322
aVEngelbert Humperdinck
p5323
aVColt Ford
p5324
aVMasters of Reality
p5325
aVBilly Talent
p5326
aVEntwine
p5327
aVMark Schultz
p5328
aVEmbodyment
p5329
aVDoves
p5330
aVFred Hammond
p5331
aVKula Shaker
p5332
aVJohn Denver
p5333
aVBraid
p5334
aVHope Partlow
p5335
aVGarbage
p5336
aVMoonsorrow
p5337
aVBlind Willie Johnson
p5338
aVPop Will Eat Itself
p5339
aVBert Jansch
p5340
aVLush
p5341
aVLinton Kwesi Johnson
p5342
aVGuus Meeuwis
p5343
aVThe Flaming Sideburns
p5344
aVNewton Faulkner
p5345
aVUrban Species
p5346
aVSleep
p5347
aVThomas Dybdahl
p5348
aVPhil Wickham
p5349
aVJohn Wesley Harding
p5350
aVEktomorf
p5351
aVThe Cranberries
p5352
aVDire Straits
p5353
aVIris Dement
p5354
a.